; ModuleID = 'llvm-link'
source_filename = "llvm-link"
target datalayout = "e-m:e-p270:32:32-p271:32:32-p272:64:64-i64:64-f80:128-n8:16:32:64-S128"
target triple = "x86_64-pc-linux-gnu"

%class.Solver = type { %class.vec, %class.vec.0, double, double, double, i32, double, double, double, i8, i32, i32, i64, i64, i64, i64, i64, i64, i64, i64, i64, i8, %class.vec.1, %class.vec.1, double, %class.vec.2, double, %class.vec.3, %class.vec.4, %class.vec.4, %class.vec.4, %class.vec.0, %class.vec.5, %class.vec.1, %class.vec.5, i32, i32, i64, %class.vec.0, %class.Heap, double, double, i8, %class.vec.4, %class.vec.0, %class.vec.0, %class.vec.0 }
%class.vec = type { %class.lbool*, i32, i32 }
%class.lbool = type { i8 }
%class.vec.2 = type { double*, i32, i32 }
%class.vec.3 = type { %class.vec.1*, i32, i32 }
%class.vec.1 = type { %class.Clause**, i32, i32 }
%class.Clause = type { i32, %union.anon, [0 x %class.Lit] }
%union.anon = type { float }
%class.Lit = type { i32 }
%class.vec.5 = type { i32*, i32, i32 }
%class.Heap = type { %"struct.Solver::VarOrderLt", %class.vec.5, %class.vec.5 }
%"struct.Solver::VarOrderLt" = type { %class.vec.2* }
%class.vec.4 = type { i8*, i32, i32 }
%class.vec.0 = type { %class.Lit*, i32, i32 }
%struct._IO_FILE = type { i32, i8*, i8*, i8*, i8*, i8*, i8*, i8*, i8*, i8*, i8*, i8*, %struct._IO_marker*, %struct._IO_FILE*, i32, i32, i64, i16, i8, [1 x i8], i8*, i64, %struct._IO_codecvt*, %struct._IO_wide_data*, %struct._IO_FILE*, i8*, i64, i32, [20 x i8] }
%struct._IO_marker = type opaque
%struct._IO_codecvt = type opaque
%struct._IO_wide_data = type opaque
%struct.rusage = type { %struct.timeval, %struct.timeval, %union.anon.6, %union.anon.6, %union.anon.6, %union.anon.6, %union.anon.6, %union.anon.6, %union.anon.6, %union.anon.6, %union.anon.6, %union.anon.6, %union.anon.6, %union.anon.6, %union.anon.6, %union.anon.6 }
%struct.timeval = type { i64, i64 }
%union.anon.6 = type { i64 }
%class.StreamBuffer = type { %struct._IO_FILE*, [1048576 x i8], i32, i32 }
%"struct.Solver::VarFilter" = type { %class.Solver* }

$_Z7toLbooli = comdat any

$_ZN5lboolC2Ei = comdat any

$_ZN3LitC2Eib = comdat any

$_ZN6Solver5solveEv = comdat any

$_ZNK6Solver5nVarsEv = comdat any

$_ZN3vecI5lboolEixEi = comdat any

$_ZNK5lboolneES_ = comdat any

$_ZNK5lbooleqES_ = comdat any

$_ZNK3vecIcE4sizeEv = comdat any

$_ZN3vecI3LitEC2Ev = comdat any

$_ZN3vecI3LitED2Ev = comdat any

$_ZN3vecI3LitE5clearEb = comdat any

$__clang_call_terminate = comdat any

$_ZN12StreamBufferC2EP8_IO_FILE = comdat any

$_ZN12StreamBufferdeEv = comdat any

$_Zco3Lit = comdat any

$_ZN3vecI3LitE4pushERKS0_ = comdat any

$_ZN3vecI3LitE4imaxEii = comdat any

$_ZN3LitC2Ev = comdat any

$_ZN12StreamBufferppEv = comdat any

$_ZN12StreamBuffer15assureLookaheadEv = comdat any

$_ZN3vecI5lboolEC2Ev = comdat any

$_ZN3vecIP6ClauseEC2Ev = comdat any

$_ZN3vecIdEC2Ev = comdat any

$_ZN3vecIS_IP6ClauseEEC2Ev = comdat any

$_ZN3vecIcEC2Ev = comdat any

$_ZN3vecIiEC2Ev = comdat any

$_ZN6Solver10VarOrderLtC2ERK3vecIdE = comdat any

$_ZN4HeapIN6Solver10VarOrderLtEEC2ERKS1_ = comdat any

$_ZN3vecIcED2Ev = comdat any

$_ZN4HeapIN6Solver10VarOrderLtEED2Ev = comdat any

$_ZN3vecIiED2Ev = comdat any

$_ZN3vecIP6ClauseED2Ev = comdat any

$_ZN3vecIS_IP6ClauseEED2Ev = comdat any

$_ZN3vecIdED2Ev = comdat any

$_ZN3vecI5lboolED2Ev = comdat any

$_ZN3vecI5lboolE5clearEb = comdat any

$_ZN3vecIdE5clearEb = comdat any

$_ZN3vecIS_IP6ClauseEE5clearEb = comdat any

$_ZN3vecIP6ClauseE5clearEb = comdat any

$_ZN3vecIiE5clearEb = comdat any

$_ZN3vecIcE5clearEb = comdat any

$_ZNK3vecIP6ClauseE4sizeEv = comdat any

$_ZN3vecIP6ClauseEixEi = comdat any

$_ZN3vecIS_IP6ClauseEE4pushEv = comdat any

$_ZN3vecIP6ClauseE4pushERKS1_ = comdat any

$_Z5toInt5lbool = comdat any

$_ZN3vecIcE4pushERKc = comdat any

$_ZN3vecIiE4pushERKi = comdat any

$_ZN3vecIdE4pushERKd = comdat any

$_ZN6Solver14insertVarOrderEi = comdat any

$_ZNK4HeapIN6Solver10VarOrderLtEE6inHeapEi = comdat any

$_ZN3vecIcEixEi = comdat any

$_ZN4HeapIN6Solver10VarOrderLtEE6insertEi = comdat any

$_ZN3vecIiE6growToEiRKi = comdat any

$_ZNK3vecIiE4sizeEv = comdat any

$_ZN3vecIiEixEi = comdat any

$_ZN4HeapIN6Solver10VarOrderLtEE11percolateUpEi = comdat any

$_ZN4HeapIN6Solver10VarOrderLtEE6parentEi = comdat any

$_ZNK6Solver10VarOrderLtclEii = comdat any

$_ZNK3vecIdEixEi = comdat any

$_ZN3vecIiE4growEi = comdat any

$_ZNK3vecIiEixEi = comdat any

$_ZN3vecIdE4imaxEii = comdat any

$_ZN3vecIiE4imaxEii = comdat any

$_ZN3vecIcE4imaxEii = comdat any

$_ZNK5lbool5toIntEv = comdat any

$_ZN3vecIP6ClauseE4imaxEii = comdat any

$_ZN3vecIS_IP6ClauseEE4imaxEii = comdat any

$_ZNK6Solver13decisionLevelEv = comdat any

$_Z4sortI3LitEvR3vecIT_E = comdat any

$_ZNK3vecI3LitE4sizeEv = comdat any

$_ZN3vecI3LitEixEi = comdat any

$_ZNK6Solver5valueE3Lit = comdat any

$_ZNK3LiteqES_ = comdat any

$_ZNK3LitneES_ = comdat any

$_ZN3vecI3LitE6shrinkEi = comdat any

$_Z10Clause_newI3vecI3LitEEP6ClauseRKT_b = comdat any

$_ZNK6Clause4sizeEv = comdat any

$_ZN6ClauseixEi = comdat any

$_Z5toInt3Lit = comdat any

$_ZN3vecIS_IP6ClauseEEixEi = comdat any

$_ZNK6Clause6learntEv = comdat any

$_ZN6ClauseC2I3vecI3LitEEERKT_b = comdat any

$_ZNK3vecI3LitEixEi = comdat any

$_ZN6Clause15calcAbstractionEv = comdat any

$_Z3var3Lit = comdat any

$_ZN3vecIP6ClauseEcvPS1_Ev = comdat any

$_ZN3vecIP6ClauseE6shrinkEi = comdat any

$_Z4sign3Lit = comdat any

$_ZN5lboolC2Eb = comdat any

$_ZNK3vecIcEixEi = comdat any

$_ZNK5lbooleoEb = comdat any

$_Z4sortI3Lit16LessThan_defaultIS0_EEvR3vecIT_ET0_ = comdat any

$_ZN3vecI3LitEcvPS0_Ev = comdat any

$_Z4sortI3Lit16LessThan_defaultIS0_EEvPT_iT0_ = comdat any

$_Z13selectionSortI3Lit16LessThan_defaultIS0_EEvPT_iT0_ = comdat any

$_ZN16LessThan_defaultI3LitEclES0_S0_ = comdat any

$_ZNK3LitltES_ = comdat any

$_ZN3vecIP6ClauseE3popEv = comdat any

$_ZNK6ClauseixEi = comdat any

$_ZN3vecIiE6shrinkEi = comdat any

$_ZN6Solver5drandERd = comdat any

$_ZNK4HeapIN6Solver10VarOrderLtEE5emptyEv = comdat any

$_ZNK4HeapIN6Solver10VarOrderLtEE4sizeEv = comdat any

$_ZN6Solver5irandERdi = comdat any

$_ZNK4HeapIN6Solver10VarOrderLtEEixEi = comdat any

$_ZN4HeapIN6Solver10VarOrderLtEE9removeMinEv = comdat any

$_ZN3vecIiE4lastEv = comdat any

$_ZN3vecIiE3popEv = comdat any

$_ZN4HeapIN6Solver10VarOrderLtEE13percolateDownEi = comdat any

$_ZN4HeapIN6Solver10VarOrderLtEE4leftEi = comdat any

$_ZN4HeapIN6Solver10VarOrderLtEE5rightEi = comdat any

$_ZN3vecI3LitE4pushEv = comdat any

$_ZN6Solver15claBumpActivityER6Clause = comdat any

$_ZN6Solver15varBumpActivityEi = comdat any

$_ZNK6Solver13abstractLevelEi = comdat any

$_ZNK3vecI3LitE6copyToERS1_ = comdat any

$_ZN3vecI3LitE4lastEv = comdat any

$_ZN3vecI3LitE3popEv = comdat any

$_ZN3vecI3LitE6growToEi = comdat any

$_ZN3vecI3LitE4growEi = comdat any

$_ZN3vecIdEixEi = comdat any

$_ZN4HeapIN6Solver10VarOrderLtEE8decreaseEi = comdat any

$_ZN6Clause8activityEv = comdat any

$_Z4sortIP6Clause11reduceDB_ltEvR3vecIT_ET0_ = comdat any

$_ZNK6Solver6lockedERK6Clause = comdat any

$_ZNK3vecIP6ClauseEixEi = comdat any

$_Z4sortIP6Clause11reduceDB_ltEvPT_iT0_ = comdat any

$_Z13selectionSortIP6Clause11reduceDB_ltEvPT_iT0_ = comdat any

$_ZN11reduceDB_ltclEP6ClauseS1_ = comdat any

$_ZNK6Solver8nAssignsEv = comdat any

$_ZN6Solver9VarFilterC2ERKS_ = comdat any

$_ZN4HeapIN6Solver10VarOrderLtEE6filterINS0_9VarFilterEEEvRKT_ = comdat any

$_ZNK6Solver9VarFilterclEi = comdat any

$_ZNK4HeapIN6Solver10VarOrderLtEE12heapPropertyEv = comdat any

$_ZNK4HeapIN6Solver10VarOrderLtEE12heapPropertyEi = comdat any

$_ZN6Solver16varDecayActivityEv = comdat any

$_ZN6Solver16claDecayActivityEv = comdat any

$_ZN6Solver16newDecisionLevelEv = comdat any

$_ZNK6Solver8nClausesEv = comdat any

$_ZN3vecI5lboolE6growToEi = comdat any

$_ZNK6Solver5valueEi = comdat any

$_ZNK6Clause4markEv = comdat any

$_ZNK6Solver10modelValueE3Lit = comdat any

$_ZN6Solver11printClauseI6ClauseEEvRKT_ = comdat any

$_ZN6Solver8printLitE3Lit = comdat any

$_ZNK3vecI5lboolEixEi = comdat any

$_ZN3vecI5lboolE4growEi = comdat any

$_ZN5lboolC2Ev = comdat any

@solver = dso_local global %class.Solver* null, align 8
@llvm.global_ctors = appending global [2 x { i32, void ()*, i8* }] [{ i32, void ()*, i8* } { i32 65535, void ()* @_GLOBAL__sub_I_Main.cpp, i8* null }, { i32, void ()*, i8* } { i32 65535, void ()* @_GLOBAL__sub_I_Solver.cpp, i8* null }]
@_ZL7l_Undef = internal global %class.lbool zeroinitializer, align 1
@_ZL7l_False = internal global %class.lbool zeroinitializer, align 1
@_ZL6l_True = internal global %class.lbool zeroinitializer, align 1
@_ZL9lit_Error = internal global %class.Lit zeroinitializer, align 4
@_ZL9lit_Undef = internal global %class.Lit zeroinitializer, align 4
@stdout = external dso_local global %struct._IO_FILE*, align 8
@stderr = external dso_local global %struct._IO_FILE*, align 8
@.str = private unnamed_addr constant [30 x i8] c"restarts              : %lld\0A\00", align 1
@.str.5 = private unnamed_addr constant [33 x i8] c"conflicts             : %-12lld\0A\00", align 1
@.str.6 = private unnamed_addr constant [53 x i8] c"decisions             : %-12lld   (%4.2f %% random)\0A\00", align 1
@.str.7 = private unnamed_addr constant [33 x i8] c"propagations          : %-12lld\0A\00", align 1
@.str.8 = private unnamed_addr constant [54 x i8] c"conflict literals     : %-12lld   (%4.2f %% deleted)\0A\00", align 1
@.str.50 = private unnamed_addr constant [15 x i8] c"/proc/%d/statm\00", align 1
@.str.35 = private unnamed_addr constant [3 x i8] c"rb\00", align 1
@.str.51 = private unnamed_addr constant [3 x i8] c"%d\00", align 1
@.str.9 = private unnamed_addr constant [113 x i8] c"USAGE: %s [options] <input-file> <result-output-file>\0A\0A  where input may be either in plain or gzipped DIMACS.\0A\0A\00", align 1
@.str.10 = private unnamed_addr constant [11 x i8] c"OPTIONS:\0A\0A\00", align 1
@.str.11 = private unnamed_addr constant [37 x i8] c"  -polarity-mode = {true,false,rnd}\0A\00", align 1
@.str.12 = private unnamed_addr constant [36 x i8] c"  -decay         = <num> [ 0 - 1 ]\0A\00", align 1
@.str.13 = private unnamed_addr constant [36 x i8] c"  -rnd-freq      = <num> [ 0 - 1 ]\0A\00", align 1
@.str.14 = private unnamed_addr constant [28 x i8] c"  -verbosity     = {0,1,2}\0A\00", align 1
@.str.15 = private unnamed_addr constant [2 x i8] c"\0A\00", align 1
@.str.16 = private unnamed_addr constant [16 x i8] c"-polarity-mode=\00", align 1
@.str.17 = private unnamed_addr constant [5 x i8] c"true\00", align 1
@.str.18 = private unnamed_addr constant [6 x i8] c"false\00", align 1
@.str.19 = private unnamed_addr constant [4 x i8] c"rnd\00", align 1
@.str.20 = private unnamed_addr constant [33 x i8] c"ERROR! unknown polarity-mode %s\0A\00", align 1
@.str.21 = private unnamed_addr constant [11 x i8] c"-rnd-freq=\00", align 1
@.str.22 = private unnamed_addr constant [4 x i8] c"%lf\00", align 1
@.str.23 = private unnamed_addr constant [37 x i8] c"ERROR! illegal rnd-freq constant %s\0A\00", align 1
@.str.24 = private unnamed_addr constant [8 x i8] c"-decay=\00", align 1
@.str.25 = private unnamed_addr constant [34 x i8] c"ERROR! illegal decay constant %s\0A\00", align 1
@.str.26 = private unnamed_addr constant [12 x i8] c"-verbosity=\00", align 1
@.str.27 = private unnamed_addr constant [35 x i8] c"ERROR! illegal verbosity level %s\0A\00", align 1
@.str.28 = private unnamed_addr constant [3 x i8] c"-h\00", align 1
@.str.29 = private unnamed_addr constant [6 x i8] c"-help\00", align 1
@.str.30 = private unnamed_addr constant [7 x i8] c"--help\00", align 1
@.str.31 = private unnamed_addr constant [2 x i8] c"-\00", align 1
@.str.32 = private unnamed_addr constant [24 x i8] c"ERROR! unknown flag %s\0A\00", align 1
@.str.33 = private unnamed_addr constant [26 x i8] c"This is MiniSat 2.0 beta\0A\00", align 1
@.str.34 = private unnamed_addr constant [63 x i8] c"Reading from standard input... Use '-h' or '--help' for help.\0A\00", align 1
@stdin = external dso_local global %struct._IO_FILE*, align 8
@.str.37 = private unnamed_addr constant [8 x i8] c"<stdin>\00", align 1
@.str.36 = private unnamed_addr constant [32 x i8] c"ERROR! Could not open file: %s\0A\00", align 1
@.str.38 = private unnamed_addr constant [81 x i8] c"============================[ Problem Statistics ]=============================\0A\00", align 1
@.str.39 = private unnamed_addr constant [81 x i8] c"|                                                                             |\0A\00", align 1
@.str.40 = private unnamed_addr constant [3 x i8] c"wb\00", align 1
@.str.41 = private unnamed_addr constant [28 x i8] c"Solved by unit propagation\0A\00", align 1
@.str.42 = private unnamed_addr constant [7 x i8] c"UNSAT\0A\00", align 1
@.str.43 = private unnamed_addr constant [15 x i8] c"UNSATISFIABLE\0A\00", align 1
@.str.44 = private unnamed_addr constant [13 x i8] c"SATISFIABLE\0A\00", align 1
@.str.45 = private unnamed_addr constant [5 x i8] c"SAT\0A\00", align 1
@.str.47 = private unnamed_addr constant [1 x i8] zeroinitializer, align 1
@.str.48 = private unnamed_addr constant [2 x i8] c" \00", align 1
@.str.46 = private unnamed_addr constant [7 x i8] c"%s%s%d\00", align 1
@.str.49 = private unnamed_addr constant [4 x i8] c" 0\0A\00", align 1
@.str.52 = private unnamed_addr constant [6 x i8] c"p cnf\00", align 1
@.str.53 = private unnamed_addr constant [74 x i8] c"|  Number of variables:  %-12d                                         |\0A\00", align 1
@.str.54 = private unnamed_addr constant [74 x i8] c"|  Number of clauses:    %-12d                                         |\0A\00", align 1
@.str.55 = private unnamed_addr constant [34 x i8] c"PARSE ERROR! Unexpected char: %c\0A\00", align 1
@_ZL7l_Undef.10 = internal global %class.lbool zeroinitializer, align 1
@_ZL7l_False.11 = internal global %class.lbool zeroinitializer, align 1
@_ZL6l_True.12 = internal global %class.lbool zeroinitializer, align 1
@_ZL9lit_Error.13 = internal global %class.Lit zeroinitializer, align 4
@_ZL9lit_Undef.14 = internal global %class.Lit zeroinitializer, align 4
@.str.27.17 = private unnamed_addr constant [11 x i8] c"!inHeap(n)\00", align 1
@.str.28.18 = private unnamed_addr constant [9 x i8] c"./Heap.h\00", align 1
@__PRETTY_FUNCTION__._ZN4HeapIN6Solver10VarOrderLtEE6insertEi = private unnamed_addr constant [71 x i8] c"void Heap<Solver::VarOrderLt>::insert(int) [Comp = Solver::VarOrderLt]\00", align 1
@.str.56 = private unnamed_addr constant [21 x i8] c"decisionLevel() == 0\00", align 1
@.str.5.57 = private unnamed_addr constant [11 x i8] c"Solver.cpp\00", align 1
@__PRETTY_FUNCTION__._ZN6Solver9addClauseER3vecI3LitE = private unnamed_addr constant [35 x i8] c"bool Solver::addClause(vec<Lit> &)\00", align 1
@.str.6.58 = private unnamed_addr constant [24 x i8] c"value(ps[0]) == l_Undef\00", align 1
@.str.7.59 = private unnamed_addr constant [13 x i8] c"c.size() > 1\00", align 1
@__PRETTY_FUNCTION__._ZN6Solver12attachClauseER6Clause = private unnamed_addr constant [36 x i8] c"void Solver::attachClause(Clause &)\00", align 1
@.str.15.60 = private unnamed_addr constant [18 x i8] c"c[1] == false_lit\00", align 1
@__PRETTY_FUNCTION__._ZN6Solver9propagateEv = private unnamed_addr constant [28 x i8] c"Clause *Solver::propagate()\00", align 1
@.str.30.61 = private unnamed_addr constant [13 x i8] c"nelems <= sz\00", align 1
@.str.31.62 = private unnamed_addr constant [8 x i8] c"./Vec.h\00", align 1
@__PRETTY_FUNCTION__._ZN3vecIP6ClauseE6shrinkEi = private unnamed_addr constant [47 x i8] c"void vec<Clause *>::shrink(int) [T = Clause *]\00", align 1
@.str.14.63 = private unnamed_addr constant [20 x i8] c"value(p) == l_Undef\00", align 1
@__PRETTY_FUNCTION__._ZN6Solver16uncheckedEnqueueE3LitP6Clause = private unnamed_addr constant [45 x i8] c"void Solver::uncheckedEnqueue(Lit, Clause *)\00", align 1
@__PRETTY_FUNCTION__._ZN3vecI3LitE6shrinkEi = private unnamed_addr constant [37 x i8] c"void vec<Lit>::shrink(int) [T = Lit]\00", align 1
@__PRETTY_FUNCTION__._ZN6Solver12detachClauseER6Clause = private unnamed_addr constant [36 x i8] c"void Solver::detachClause(Clause &)\00", align 1
@.str.8.64 = private unnamed_addr constant [32 x i8] c"find(watches[toInt(~c[0])], &c)\00", align 1
@.str.9.65 = private unnamed_addr constant [32 x i8] c"find(watches[toInt(~c[1])], &c)\00", align 1
@.str.32.66 = private unnamed_addr constant [14 x i8] c"j < ts.size()\00", align 1
@.str.33.67 = private unnamed_addr constant [8 x i8] c"./Alg.h\00", align 1
@__PRETTY_FUNCTION__._ZL6removeI3vecIP6ClauseES2_EvRT_RKT0_ = private unnamed_addr constant [62 x i8] c"void remove(V &, const T &) [V = vec<Clause *>, T = Clause *]\00", align 1
@__PRETTY_FUNCTION__._ZN3vecIiE6shrinkEi = private unnamed_addr constant [37 x i8] c"void vec<int>::shrink(int) [T = int]\00", align 1
@.str.10.68 = private unnamed_addr constant [6 x i8] c"false\00", align 1
@__PRETTY_FUNCTION__._ZN6Solver13pickBranchLitEid = private unnamed_addr constant [39 x i8] c"Lit Solver::pickBranchLit(int, double)\00", align 1
@.str.34.69 = private unnamed_addr constant [20 x i8] c"index < heap.size()\00", align 1
@__PRETTY_FUNCTION__._ZNK4HeapIN6Solver10VarOrderLtEEixEi = private unnamed_addr constant [80 x i8] c"int Heap<Solver::VarOrderLt>::operator[](int) const [Comp = Solver::VarOrderLt]\00", align 1
@.str.11.70 = private unnamed_addr constant [14 x i8] c"confl != NULL\00", align 1
@__PRETTY_FUNCTION__._ZN6Solver7analyzeEP6ClauseR3vecI3LitERi = private unnamed_addr constant [50 x i8] c"void Solver::analyze(Clause *, vec<Lit> &, int &)\00", align 1
@.str.12.71 = private unnamed_addr constant [42 x i8] c"reason[var(analyze_stack.last())] != NULL\00", align 1
@__PRETTY_FUNCTION__._ZN6Solver12litRedundantE3Litj = private unnamed_addr constant [41 x i8] c"bool Solver::litRedundant(Lit, uint32_t)\00", align 1
@.str.29.72 = private unnamed_addr constant [10 x i8] c"inHeap(n)\00", align 1
@__PRETTY_FUNCTION__._ZN4HeapIN6Solver10VarOrderLtEE8decreaseEi = private unnamed_addr constant [73 x i8] c"void Heap<Solver::VarOrderLt>::decrease(int) [Comp = Solver::VarOrderLt]\00", align 1
@.str.13.73 = private unnamed_addr constant [13 x i8] c"level[x] > 0\00", align 1
@__PRETTY_FUNCTION__._ZN6Solver12analyzeFinalE3LitR3vecIS0_E = private unnamed_addr constant [43 x i8] c"void Solver::analyzeFinal(Lit, vec<Lit> &)\00", align 1
@__PRETTY_FUNCTION__._ZN6Solver8simplifyEv = private unnamed_addr constant [24 x i8] c"bool Solver::simplify()\00", align 1
@.str.35.76 = private unnamed_addr constant [15 x i8] c"heapProperty()\00", align 1
@__PRETTY_FUNCTION__._ZN4HeapIN6Solver10VarOrderLtEE6filterINS0_9VarFilterEEEvRKT_ = private unnamed_addr constant [100 x i8] c"void Heap<Solver::VarOrderLt>::filter(const F &) [Comp = Solver::VarOrderLt, F = Solver::VarFilter]\00", align 1
@.str.16.77 = private unnamed_addr constant [3 x i8] c"ok\00", align 1
@__PRETTY_FUNCTION__._ZN6Solver6searchEii = private unnamed_addr constant [31 x i8] c"lbool Solver::search(int, int)\00", align 1
@.str.17.78 = private unnamed_addr constant [35 x i8] c"value(learnt_clause[0]) == l_Undef\00", align 1
@.str.18.79 = private unnamed_addr constant [23 x i8] c"value(next) == l_Undef\00", align 1
@.str.19.82 = private unnamed_addr constant [18 x i8] c"status == l_False\00", align 1
@__PRETTY_FUNCTION__._ZN6Solver5solveERK3vecI3LitE = private unnamed_addr constant [37 x i8] c"bool Solver::solve(const vec<Lit> &)\00", align 1
@.str.20.83 = private unnamed_addr constant [24 x i8] c"clauses[i]->mark() == 0\00", align 1
@__PRETTY_FUNCTION__._ZN6Solver11verifyModelEv = private unnamed_addr constant [27 x i8] c"void Solver::verifyModel()\00", align 1
@.str.21.84 = private unnamed_addr constant [21 x i8] c"unsatisfied clause: \00", align 1
@.str.22.85 = private unnamed_addr constant [2 x i8] c"\0A\00", align 1
@.str.23.86 = private unnamed_addr constant [8 x i8] c"!failed\00", align 1
@.str.24.87 = private unnamed_addr constant [31 x i8] c"Verified %d original clauses.\0A\00", align 1
@.str.36.88 = private unnamed_addr constant [2 x i8] c" \00", align 1
@.str.38.89 = private unnamed_addr constant [2 x i8] c"-\00", align 1
@.str.39.90 = private unnamed_addr constant [1 x i8] zeroinitializer, align 1
@.str.37.91 = private unnamed_addr constant [8 x i8] c"%s%d:%c\00", align 1
@.str.25.92 = private unnamed_addr constant [36 x i8] c"literal count: %d, real value = %d\0A\00", align 1
@.str.26.93 = private unnamed_addr constant [29 x i8] c"(int)clauses_literals == cnt\00", align 1
@__PRETTY_FUNCTION__._ZN6Solver17checkLiteralCountEv = private unnamed_addr constant [33 x i8] c"void Solver::checkLiteralCount()\00", align 1

@_ZN6SolverC1Ev = dso_local unnamed_addr alias void (%class.Solver*), void (%class.Solver*)* @_ZN6SolverC2Ev
@_ZN6SolverD1Ev = dso_local unnamed_addr alias void (%class.Solver*), void (%class.Solver*)* @_ZN6SolverD2Ev

; Function Attrs: noinline uwtable
define internal void @_GLOBAL__sub_I_Main.cpp() #0 section ".text.startup" {
  call void @__cxx_global_var_init()
  call void @__cxx_global_var_init.1()
  call void @__cxx_global_var_init.2()
  call void @__cxx_global_var_init.3()
  call void @__cxx_global_var_init.4()
  ret void
}

; Function Attrs: noinline uwtable
define internal void @__cxx_global_var_init() #0 section ".text.startup" {
  call void @_ZN3LitC2Eib(%class.Lit* @_ZL9lit_Undef, i32 -1, i1 zeroext false)
  ret void
}

; Function Attrs: noinline uwtable
define internal void @__cxx_global_var_init.1() #0 section ".text.startup" {
  call void @_ZN3LitC2Eib(%class.Lit* @_ZL9lit_Error, i32 -1, i1 zeroext true)
  ret void
}

; Function Attrs: noinline uwtable
define internal void @__cxx_global_var_init.2() #0 section ".text.startup" {
  %1 = call i8 @_Z7toLbooli(i32 1)
  store i8 %1, i8* getelementptr inbounds (%class.lbool, %class.lbool* @_ZL6l_True, i32 0, i32 0), align 1
  ret void
}

; Function Attrs: noinline uwtable
define internal void @__cxx_global_var_init.3() #0 section ".text.startup" {
  %1 = call i8 @_Z7toLbooli(i32 -1)
  store i8 %1, i8* getelementptr inbounds (%class.lbool, %class.lbool* @_ZL7l_False, i32 0, i32 0), align 1
  ret void
}

; Function Attrs: noinline uwtable
define internal void @__cxx_global_var_init.4() #0 section ".text.startup" {
  %1 = call i8 @_Z7toLbooli(i32 0)
  store i8 %1, i8* getelementptr inbounds (%class.lbool, %class.lbool* @_ZL7l_Undef, i32 0, i32 0), align 1
  ret void
}

; Function Attrs: noinline uwtable
define linkonce_odr dso_local i8 @_Z7toLbooli(i32 %0) #0 comdat {
  %2 = alloca %class.lbool, align 1
  %3 = alloca i32, align 4
  store i32 %0, i32* %3, align 4
  %4 = load i32, i32* %3, align 4
  call void @_ZN5lboolC2Ei(%class.lbool* %2, i32 %4)
  %5 = getelementptr inbounds %class.lbool, %class.lbool* %2, i32 0, i32 0
  %6 = load i8, i8* %5, align 1
  ret i8 %6
}

; Function Attrs: noinline nounwind uwtable
define linkonce_odr dso_local void @_ZN5lboolC2Ei(%class.lbool* %0, i32 %1) unnamed_addr #1 comdat align 2 {
  %3 = alloca %class.lbool*, align 8
  %4 = alloca i32, align 4
  store %class.lbool* %0, %class.lbool** %3, align 8
  store i32 %1, i32* %4, align 4
  %5 = load %class.lbool*, %class.lbool** %3, align 8
  %6 = getelementptr inbounds %class.lbool, %class.lbool* %5, i32 0, i32 0
  %7 = load i32, i32* %4, align 4
  %8 = trunc i32 %7 to i8
  store i8 %8, i8* %6, align 1
  ret void
}

; Function Attrs: noinline nounwind uwtable
define linkonce_odr dso_local void @_ZN3LitC2Eib(%class.Lit* %0, i32 %1, i1 zeroext %2) unnamed_addr #1 comdat align 2 {
  %4 = alloca %class.Lit*, align 8
  %5 = alloca i32, align 4
  %6 = alloca i8, align 1
  store %class.Lit* %0, %class.Lit** %4, align 8
  store i32 %1, i32* %5, align 4
  %7 = zext i1 %2 to i8
  store i8 %7, i8* %6, align 1
  %8 = load %class.Lit*, %class.Lit** %4, align 8
  %9 = getelementptr inbounds %class.Lit, %class.Lit* %8, i32 0, i32 0
  %10 = load i32, i32* %5, align 4
  %11 = load i32, i32* %5, align 4
  %12 = add nsw i32 %10, %11
  %13 = load i8, i8* %6, align 1
  %14 = trunc i8 %13 to i1
  %15 = zext i1 %14 to i32
  %16 = add nsw i32 %12, %15
  store i32 %16, i32* %9, align 4
  ret void
}

; Function Attrs: noinline uwtable
define dso_local void @_Z10printStatsR6Solver(%class.Solver* dereferenceable(536) %0) #0 {
  %2 = alloca %class.Solver*, align 8
  %3 = alloca double, align 8
  %4 = alloca i64, align 8
  store %class.Solver* %0, %class.Solver** %2, align 8
  %5 = call double @_ZL7cpuTimev()
  store double %5, double* %3, align 8
  %6 = call i64 @_ZL7memUsedv()
  store i64 %6, i64* %4, align 8
  %7 = load %struct._IO_FILE*, %struct._IO_FILE** @stdout, align 8
  %8 = call i32 @fflush(%struct._IO_FILE* %7)
  %9 = load %struct._IO_FILE*, %struct._IO_FILE** @stderr, align 8
  %10 = load %class.Solver*, %class.Solver** %2, align 8
  %11 = getelementptr inbounds %class.Solver, %class.Solver* %10, i32 0, i32 12
  %12 = load i64, i64* %11, align 8
  %13 = call i32 (%struct._IO_FILE*, i8*, ...) @fprintf(%struct._IO_FILE* %9, i8* getelementptr inbounds ([30 x i8], [30 x i8]* @.str, i64 0, i64 0), i64 %12)
  %14 = load %struct._IO_FILE*, %struct._IO_FILE** @stderr, align 8
  %15 = call i32 @fflush(%struct._IO_FILE* %14)
  %16 = load %struct._IO_FILE*, %struct._IO_FILE** @stdout, align 8
  %17 = call i32 @fflush(%struct._IO_FILE* %16)
  %18 = load %struct._IO_FILE*, %struct._IO_FILE** @stderr, align 8
  %19 = load %class.Solver*, %class.Solver** %2, align 8
  %20 = getelementptr inbounds %class.Solver, %class.Solver* %19, i32 0, i32 16
  %21 = load i64, i64* %20, align 8
  %22 = call i32 (%struct._IO_FILE*, i8*, ...) @fprintf(%struct._IO_FILE* %18, i8* getelementptr inbounds ([33 x i8], [33 x i8]* @.str.5, i64 0, i64 0), i64 %21)
  %23 = load %struct._IO_FILE*, %struct._IO_FILE** @stderr, align 8
  %24 = call i32 @fflush(%struct._IO_FILE* %23)
  %25 = load %struct._IO_FILE*, %struct._IO_FILE** @stdout, align 8
  %26 = call i32 @fflush(%struct._IO_FILE* %25)
  %27 = load %struct._IO_FILE*, %struct._IO_FILE** @stderr, align 8
  %28 = load %class.Solver*, %class.Solver** %2, align 8
  %29 = getelementptr inbounds %class.Solver, %class.Solver* %28, i32 0, i32 13
  %30 = load i64, i64* %29, align 8
  %31 = load %class.Solver*, %class.Solver** %2, align 8
  %32 = getelementptr inbounds %class.Solver, %class.Solver* %31, i32 0, i32 14
  %33 = load i64, i64* %32, align 8
  %34 = uitofp i64 %33 to float
  %35 = fmul float %34, 1.000000e+02
  %36 = load %class.Solver*, %class.Solver** %2, align 8
  %37 = getelementptr inbounds %class.Solver, %class.Solver* %36, i32 0, i32 13
  %38 = load i64, i64* %37, align 8
  %39 = uitofp i64 %38 to float
  %40 = fdiv float %35, %39
  %41 = fpext float %40 to double
  %42 = call i32 (%struct._IO_FILE*, i8*, ...) @fprintf(%struct._IO_FILE* %27, i8* getelementptr inbounds ([53 x i8], [53 x i8]* @.str.6, i64 0, i64 0), i64 %30, double %41)
  %43 = load %struct._IO_FILE*, %struct._IO_FILE** @stderr, align 8
  %44 = call i32 @fflush(%struct._IO_FILE* %43)
  %45 = load %struct._IO_FILE*, %struct._IO_FILE** @stdout, align 8
  %46 = call i32 @fflush(%struct._IO_FILE* %45)
  %47 = load %struct._IO_FILE*, %struct._IO_FILE** @stderr, align 8
  %48 = load %class.Solver*, %class.Solver** %2, align 8
  %49 = getelementptr inbounds %class.Solver, %class.Solver* %48, i32 0, i32 15
  %50 = load i64, i64* %49, align 8
  %51 = call i32 (%struct._IO_FILE*, i8*, ...) @fprintf(%struct._IO_FILE* %47, i8* getelementptr inbounds ([33 x i8], [33 x i8]* @.str.7, i64 0, i64 0), i64 %50)
  %52 = load %struct._IO_FILE*, %struct._IO_FILE** @stderr, align 8
  %53 = call i32 @fflush(%struct._IO_FILE* %52)
  %54 = load %struct._IO_FILE*, %struct._IO_FILE** @stdout, align 8
  %55 = call i32 @fflush(%struct._IO_FILE* %54)
  %56 = load %struct._IO_FILE*, %struct._IO_FILE** @stderr, align 8
  %57 = load %class.Solver*, %class.Solver** %2, align 8
  %58 = getelementptr inbounds %class.Solver, %class.Solver* %57, i32 0, i32 20
  %59 = load i64, i64* %58, align 8
  %60 = load %class.Solver*, %class.Solver** %2, align 8
  %61 = getelementptr inbounds %class.Solver, %class.Solver* %60, i32 0, i32 19
  %62 = load i64, i64* %61, align 8
  %63 = load %class.Solver*, %class.Solver** %2, align 8
  %64 = getelementptr inbounds %class.Solver, %class.Solver* %63, i32 0, i32 20
  %65 = load i64, i64* %64, align 8
  %66 = sub i64 %62, %65
  %67 = mul i64 %66, 100
  %68 = uitofp i64 %67 to double
  %69 = load %class.Solver*, %class.Solver** %2, align 8
  %70 = getelementptr inbounds %class.Solver, %class.Solver* %69, i32 0, i32 19
  %71 = load i64, i64* %70, align 8
  %72 = uitofp i64 %71 to double
  %73 = fdiv double %68, %72
  %74 = call i32 (%struct._IO_FILE*, i8*, ...) @fprintf(%struct._IO_FILE* %56, i8* getelementptr inbounds ([54 x i8], [54 x i8]* @.str.8, i64 0, i64 0), i64 %59, double %73)
  %75 = load %struct._IO_FILE*, %struct._IO_FILE** @stderr, align 8
  %76 = call i32 @fflush(%struct._IO_FILE* %75)
  ret void
}

; Function Attrs: noinline nounwind uwtable
define internal double @_ZL7cpuTimev() #1 {
  %1 = alloca %struct.rusage, align 8
  %2 = call i32 @getrusage(i32 0, %struct.rusage* %1) #12
  %3 = getelementptr inbounds %struct.rusage, %struct.rusage* %1, i32 0, i32 0
  %4 = getelementptr inbounds %struct.timeval, %struct.timeval* %3, i32 0, i32 0
  %5 = load i64, i64* %4, align 8
  %6 = sitofp i64 %5 to double
  %7 = getelementptr inbounds %struct.rusage, %struct.rusage* %1, i32 0, i32 0
  %8 = getelementptr inbounds %struct.timeval, %struct.timeval* %7, i32 0, i32 1
  %9 = load i64, i64* %8, align 8
  %10 = sitofp i64 %9 to double
  %11 = fdiv double %10, 1.000000e+06
  %12 = fadd double %6, %11
  ret double %12
}

; Function Attrs: noinline uwtable
define internal i64 @_ZL7memUsedv() #0 {
  %1 = call i32 @_ZL11memReadStati(i32 0)
  %2 = sext i32 %1 to i64
  %3 = call i32 @getpagesize() #13
  %4 = sext i32 %3 to i64
  %5 = mul i64 %2, %4
  ret i64 %5
}

declare dso_local i32 @fflush(%struct._IO_FILE*) #2

declare dso_local i32 @fprintf(%struct._IO_FILE*, i8*, ...) #2

; Function Attrs: noinline uwtable
define internal i32 @_ZL11memReadStati(i32 %0) #0 {
  %2 = alloca i32, align 4
  %3 = alloca i32, align 4
  %4 = alloca [256 x i8], align 16
  %5 = alloca i32, align 4
  %6 = alloca %struct._IO_FILE*, align 8
  %7 = alloca i32, align 4
  store i32 %0, i32* %3, align 4
  %8 = call i32 @getpid() #12
  store i32 %8, i32* %5, align 4
  %9 = getelementptr inbounds [256 x i8], [256 x i8]* %4, i64 0, i64 0
  %10 = load i32, i32* %5, align 4
  %11 = call i32 (i8*, i8*, ...) @sprintf(i8* %9, i8* getelementptr inbounds ([15 x i8], [15 x i8]* @.str.50, i64 0, i64 0), i32 %10) #12
  %12 = getelementptr inbounds [256 x i8], [256 x i8]* %4, i64 0, i64 0
  %13 = call %struct._IO_FILE* @fopen(i8* %12, i8* getelementptr inbounds ([3 x i8], [3 x i8]* @.str.35, i64 0, i64 0))
  store %struct._IO_FILE* %13, %struct._IO_FILE** %6, align 8
  %14 = load %struct._IO_FILE*, %struct._IO_FILE** %6, align 8
  %15 = icmp eq %struct._IO_FILE* %14, null
  br i1 %15, label %16, label %17

16:                                               ; preds = %1
  store i32 0, i32* %2, align 4
  br label %31

17:                                               ; preds = %1
  br label %18

18:                                               ; preds = %24, %17
  %19 = load i32, i32* %3, align 4
  %20 = icmp sge i32 %19, 0
  br i1 %20, label %21, label %27

21:                                               ; preds = %18
  %22 = load %struct._IO_FILE*, %struct._IO_FILE** %6, align 8
  %23 = call i32 (%struct._IO_FILE*, i8*, ...) @fscanf(%struct._IO_FILE* %22, i8* getelementptr inbounds ([3 x i8], [3 x i8]* @.str.51, i64 0, i64 0), i32* %7)
  br label %24

24:                                               ; preds = %21
  %25 = load i32, i32* %3, align 4
  %26 = add nsw i32 %25, -1
  store i32 %26, i32* %3, align 4
  br label %18

27:                                               ; preds = %18
  %28 = load %struct._IO_FILE*, %struct._IO_FILE** %6, align 8
  %29 = call i32 @fclose(%struct._IO_FILE* %28)
  %30 = load i32, i32* %7, align 4
  store i32 %30, i32* %2, align 4
  br label %31

31:                                               ; preds = %27, %16
  %32 = load i32, i32* %2, align 4
  ret i32 %32
}

; Function Attrs: nounwind readnone
declare dso_local i32 @getpagesize() #3

; Function Attrs: nounwind
declare dso_local i32 @getpid() #4

; Function Attrs: nounwind
declare dso_local i32 @sprintf(i8*, i8*, ...) #4

declare dso_local %struct._IO_FILE* @fopen(i8*, i8*) #2

declare dso_local i32 @fscanf(%struct._IO_FILE*, i8*, ...) #2

declare dso_local i32 @fclose(%struct._IO_FILE*) #2

; Function Attrs: nounwind
declare dso_local i32 @getrusage(i32, %struct.rusage*) #4

; Function Attrs: noinline uwtable
define dso_local void @_Z10printUsagePPc(i8** %0) #0 {
  %2 = alloca i8**, align 8
  store i8** %0, i8*** %2, align 8
  %3 = load %struct._IO_FILE*, %struct._IO_FILE** @stdout, align 8
  %4 = call i32 @fflush(%struct._IO_FILE* %3)
  %5 = load %struct._IO_FILE*, %struct._IO_FILE** @stderr, align 8
  %6 = load i8**, i8*** %2, align 8
  %7 = getelementptr inbounds i8*, i8** %6, i64 0
  %8 = load i8*, i8** %7, align 8
  %9 = call i32 (%struct._IO_FILE*, i8*, ...) @fprintf(%struct._IO_FILE* %5, i8* getelementptr inbounds ([113 x i8], [113 x i8]* @.str.9, i64 0, i64 0), i8* %8)
  %10 = load %struct._IO_FILE*, %struct._IO_FILE** @stderr, align 8
  %11 = call i32 @fflush(%struct._IO_FILE* %10)
  %12 = load %struct._IO_FILE*, %struct._IO_FILE** @stdout, align 8
  %13 = call i32 @fflush(%struct._IO_FILE* %12)
  %14 = load %struct._IO_FILE*, %struct._IO_FILE** @stderr, align 8
  %15 = call i32 (%struct._IO_FILE*, i8*, ...) @fprintf(%struct._IO_FILE* %14, i8* getelementptr inbounds ([11 x i8], [11 x i8]* @.str.10, i64 0, i64 0))
  %16 = load %struct._IO_FILE*, %struct._IO_FILE** @stderr, align 8
  %17 = call i32 @fflush(%struct._IO_FILE* %16)
  %18 = load %struct._IO_FILE*, %struct._IO_FILE** @stdout, align 8
  %19 = call i32 @fflush(%struct._IO_FILE* %18)
  %20 = load %struct._IO_FILE*, %struct._IO_FILE** @stderr, align 8
  %21 = call i32 (%struct._IO_FILE*, i8*, ...) @fprintf(%struct._IO_FILE* %20, i8* getelementptr inbounds ([37 x i8], [37 x i8]* @.str.11, i64 0, i64 0))
  %22 = load %struct._IO_FILE*, %struct._IO_FILE** @stderr, align 8
  %23 = call i32 @fflush(%struct._IO_FILE* %22)
  %24 = load %struct._IO_FILE*, %struct._IO_FILE** @stdout, align 8
  %25 = call i32 @fflush(%struct._IO_FILE* %24)
  %26 = load %struct._IO_FILE*, %struct._IO_FILE** @stderr, align 8
  %27 = call i32 (%struct._IO_FILE*, i8*, ...) @fprintf(%struct._IO_FILE* %26, i8* getelementptr inbounds ([36 x i8], [36 x i8]* @.str.12, i64 0, i64 0))
  %28 = load %struct._IO_FILE*, %struct._IO_FILE** @stderr, align 8
  %29 = call i32 @fflush(%struct._IO_FILE* %28)
  %30 = load %struct._IO_FILE*, %struct._IO_FILE** @stdout, align 8
  %31 = call i32 @fflush(%struct._IO_FILE* %30)
  %32 = load %struct._IO_FILE*, %struct._IO_FILE** @stderr, align 8
  %33 = call i32 (%struct._IO_FILE*, i8*, ...) @fprintf(%struct._IO_FILE* %32, i8* getelementptr inbounds ([36 x i8], [36 x i8]* @.str.13, i64 0, i64 0))
  %34 = load %struct._IO_FILE*, %struct._IO_FILE** @stderr, align 8
  %35 = call i32 @fflush(%struct._IO_FILE* %34)
  %36 = load %struct._IO_FILE*, %struct._IO_FILE** @stdout, align 8
  %37 = call i32 @fflush(%struct._IO_FILE* %36)
  %38 = load %struct._IO_FILE*, %struct._IO_FILE** @stderr, align 8
  %39 = call i32 (%struct._IO_FILE*, i8*, ...) @fprintf(%struct._IO_FILE* %38, i8* getelementptr inbounds ([28 x i8], [28 x i8]* @.str.14, i64 0, i64 0))
  %40 = load %struct._IO_FILE*, %struct._IO_FILE** @stderr, align 8
  %41 = call i32 @fflush(%struct._IO_FILE* %40)
  %42 = load %struct._IO_FILE*, %struct._IO_FILE** @stdout, align 8
  %43 = call i32 @fflush(%struct._IO_FILE* %42)
  %44 = load %struct._IO_FILE*, %struct._IO_FILE** @stderr, align 8
  %45 = call i32 (%struct._IO_FILE*, i8*, ...) @fprintf(%struct._IO_FILE* %44, i8* getelementptr inbounds ([2 x i8], [2 x i8]* @.str.15, i64 0, i64 0))
  %46 = load %struct._IO_FILE*, %struct._IO_FILE** @stderr, align 8
  %47 = call i32 @fflush(%struct._IO_FILE* %46)
  ret void
}

; Function Attrs: noinline nounwind uwtable
define dso_local i8* @_Z9hasPrefixPKcS0_(i8* %0, i8* %1) #1 {
  %3 = alloca i8*, align 8
  %4 = alloca i8*, align 8
  %5 = alloca i8*, align 8
  %6 = alloca i32, align 4
  store i8* %0, i8** %4, align 8
  store i8* %1, i8** %5, align 8
  %7 = load i8*, i8** %5, align 8
  %8 = call i64 @strlen(i8* %7) #14
  %9 = trunc i64 %8 to i32
  store i32 %9, i32* %6, align 4
  %10 = load i8*, i8** %4, align 8
  %11 = load i8*, i8** %5, align 8
  %12 = load i32, i32* %6, align 4
  %13 = sext i32 %12 to i64
  %14 = call i32 @strncmp(i8* %10, i8* %11, i64 %13) #14
  %15 = icmp eq i32 %14, 0
  br i1 %15, label %16, label %22

16:                                               ; preds = %2
  %17 = load i8*, i8** %4, align 8
  %18 = load i32, i32* %6, align 4
  %19 = sext i32 %18 to i64
  %20 = getelementptr inbounds i8, i8* %17, i64 %19
  %21 = call noalias i8* @strdup(i8* %20) #12
  store i8* %21, i8** %3, align 8
  br label %23

22:                                               ; preds = %2
  store i8* null, i8** %3, align 8
  br label %23

23:                                               ; preds = %22, %16
  %24 = load i8*, i8** %3, align 8
  ret i8* %24
}

; Function Attrs: nounwind readonly
declare dso_local i64 @strlen(i8*) #5

; Function Attrs: nounwind readonly
declare dso_local i32 @strncmp(i8*, i8*, i64) #5

; Function Attrs: nounwind
declare dso_local noalias i8* @strdup(i8*) #4

; Function Attrs: noinline norecurse uwtable
define dso_local i32 @main(i32 %0, i8** %1) #6 personality i8* bitcast (i32 (...)* @__gxx_personality_v0 to i8*) {
  %3 = alloca i32, align 4
  %4 = alloca i32, align 4
  %5 = alloca i8**, align 8
  %6 = alloca %class.Solver, align 8
  %7 = alloca i32, align 4
  %8 = alloca i32, align 4
  %9 = alloca i8*, align 8
  %10 = alloca i8*
  %11 = alloca i32
  %12 = alloca double, align 8
  %13 = alloca double, align 8
  %14 = alloca i8*, align 8
  %15 = alloca i32, align 4
  %16 = alloca i16, align 2
  %17 = alloca i16, align 2
  %18 = alloca double, align 8
  %19 = alloca %struct._IO_FILE*, align 8
  %20 = alloca %struct._IO_FILE*, align 8
  %21 = alloca i8, align 1
  %22 = alloca i32, align 4
  %23 = alloca %class.lbool, align 1
  %24 = alloca %class.lbool, align 1
  store i32 0, i32* %3, align 4
  store i32 %0, i32* %4, align 4
  store i8** %1, i8*** %5, align 8
  call void @_ZN6SolverC1Ev(%class.Solver* %6)
  %25 = getelementptr inbounds %class.Solver, %class.Solver* %6, i32 0, i32 11
  store i32 1, i32* %25, align 8
  store i32 0, i32* %8, align 4
  store i32 0, i32* %7, align 4
  br label %26

26:                                               ; preds = %244, %2
  %27 = load i32, i32* %7, align 4
  %28 = load i32, i32* %4, align 4
  %29 = icmp slt i32 %27, %28
  br i1 %29, label %30, label %247

30:                                               ; preds = %26
  %31 = load i8**, i8*** %5, align 8
  %32 = load i32, i32* %7, align 4
  %33 = sext i32 %32 to i64
  %34 = getelementptr inbounds i8*, i8** %31, i64 %33
  %35 = load i8*, i8** %34, align 8
  %36 = invoke i8* @_Z9hasPrefixPKcS0_(i8* %35, i8* getelementptr inbounds ([16 x i8], [16 x i8]* @.str.16, i64 0, i64 0))
          to label %37 unwind label %45

37:                                               ; preds = %30
  store i8* %36, i8** %9, align 8
  %38 = icmp ne i8* %36, null
  br i1 %38, label %39, label %75

39:                                               ; preds = %37
  %40 = load i8*, i8** %9, align 8
  %41 = call i32 @strcmp(i8* %40, i8* getelementptr inbounds ([5 x i8], [5 x i8]* @.str.17, i64 0, i64 0)) #14
  %42 = icmp eq i32 %41, 0
  br i1 %42, label %43, label %49

43:                                               ; preds = %39
  %44 = getelementptr inbounds %class.Solver, %class.Solver* %6, i32 0, i32 10
  store i32 0, i32* %44, align 4
  br label %74

45:                                               ; preds = %447, %443, %439, %428, %423, %414, %408, %404, %399, %395, %383, %380, %377, %374, %372, %370, %367, %363, %360, %354, %351, %348, %344, %337, %331, %329, %326, %323, %320, %317, %314, %311, %307, %304, %292, %282, %273, %270, %267, %257, %254, %251, %247, %223, %215, %212, %201, %170, %166, %163, %142, %134, %130, %127, %108, %101, %97, %94, %75, %68, %64, %61, %30
  %46 = landingpad { i8*, i32 }
          cleanup
  %47 = extractvalue { i8*, i32 } %46, 0
  store i8* %47, i8** %10, align 8
  %48 = extractvalue { i8*, i32 } %46, 1
  store i32 %48, i32* %11, align 4
  call void @_ZN6SolverD1Ev(%class.Solver* %6) #12
  br label %453

49:                                               ; preds = %39
  %50 = load i8*, i8** %9, align 8
  %51 = call i32 @strcmp(i8* %50, i8* getelementptr inbounds ([6 x i8], [6 x i8]* @.str.18, i64 0, i64 0)) #14
  %52 = icmp eq i32 %51, 0
  br i1 %52, label %53, label %55

53:                                               ; preds = %49
  %54 = getelementptr inbounds %class.Solver, %class.Solver* %6, i32 0, i32 10
  store i32 1, i32* %54, align 4
  br label %73

55:                                               ; preds = %49
  %56 = load i8*, i8** %9, align 8
  %57 = call i32 @strcmp(i8* %56, i8* getelementptr inbounds ([4 x i8], [4 x i8]* @.str.19, i64 0, i64 0)) #14
  %58 = icmp eq i32 %57, 0
  br i1 %58, label %59, label %61

59:                                               ; preds = %55
  %60 = getelementptr inbounds %class.Solver, %class.Solver* %6, i32 0, i32 10
  store i32 3, i32* %60, align 4
  br label %72

61:                                               ; preds = %55
  %62 = load %struct._IO_FILE*, %struct._IO_FILE** @stdout, align 8
  %63 = invoke i32 @fflush(%struct._IO_FILE* %62)
          to label %64 unwind label %45

64:                                               ; preds = %61
  %65 = load %struct._IO_FILE*, %struct._IO_FILE** @stderr, align 8
  %66 = load i8*, i8** %9, align 8
  %67 = invoke i32 (%struct._IO_FILE*, i8*, ...) @fprintf(%struct._IO_FILE* %65, i8* getelementptr inbounds ([33 x i8], [33 x i8]* @.str.20, i64 0, i64 0), i8* %66)
          to label %68 unwind label %45

68:                                               ; preds = %64
  %69 = load %struct._IO_FILE*, %struct._IO_FILE** @stderr, align 8
  %70 = invoke i32 @fflush(%struct._IO_FILE* %69)
          to label %71 unwind label %45

71:                                               ; preds = %68
  call void @exit(i32 0) #15
  unreachable

72:                                               ; preds = %59
  br label %73

73:                                               ; preds = %72, %53
  br label %74

74:                                               ; preds = %73, %43
  br label %243

75:                                               ; preds = %37
  %76 = load i8**, i8*** %5, align 8
  %77 = load i32, i32* %7, align 4
  %78 = sext i32 %77 to i64
  %79 = getelementptr inbounds i8*, i8** %76, i64 %78
  %80 = load i8*, i8** %79, align 8
  %81 = invoke i8* @_Z9hasPrefixPKcS0_(i8* %80, i8* getelementptr inbounds ([11 x i8], [11 x i8]* @.str.21, i64 0, i64 0))
          to label %82 unwind label %45

82:                                               ; preds = %75
  store i8* %81, i8** %9, align 8
  %83 = icmp ne i8* %81, null
  br i1 %83, label %84, label %108

84:                                               ; preds = %82
  %85 = load i8*, i8** %9, align 8
  %86 = call i32 (i8*, i8*, ...) @sscanf(i8* %85, i8* getelementptr inbounds ([4 x i8], [4 x i8]* @.str.22, i64 0, i64 0), double* %12) #12
  %87 = icmp sle i32 %86, 0
  br i1 %87, label %94, label %88

88:                                               ; preds = %84
  %89 = load double, double* %12, align 8
  %90 = fcmp olt double %89, 0.000000e+00
  br i1 %90, label %94, label %91

91:                                               ; preds = %88
  %92 = load double, double* %12, align 8
  %93 = fcmp ogt double %92, 1.000000e+00
  br i1 %93, label %94, label %105

94:                                               ; preds = %91, %88, %84
  %95 = load %struct._IO_FILE*, %struct._IO_FILE** @stdout, align 8
  %96 = invoke i32 @fflush(%struct._IO_FILE* %95)
          to label %97 unwind label %45

97:                                               ; preds = %94
  %98 = load %struct._IO_FILE*, %struct._IO_FILE** @stderr, align 8
  %99 = load i8*, i8** %9, align 8
  %100 = invoke i32 (%struct._IO_FILE*, i8*, ...) @fprintf(%struct._IO_FILE* %98, i8* getelementptr inbounds ([37 x i8], [37 x i8]* @.str.23, i64 0, i64 0), i8* %99)
          to label %101 unwind label %45

101:                                              ; preds = %97
  %102 = load %struct._IO_FILE*, %struct._IO_FILE** @stderr, align 8
  %103 = invoke i32 @fflush(%struct._IO_FILE* %102)
          to label %104 unwind label %45

104:                                              ; preds = %101
  call void @exit(i32 0) #15
  unreachable

105:                                              ; preds = %91
  %106 = load double, double* %12, align 8
  %107 = getelementptr inbounds %class.Solver, %class.Solver* %6, i32 0, i32 4
  store double %106, double* %107, align 8
  br label %242

108:                                              ; preds = %82
  %109 = load i8**, i8*** %5, align 8
  %110 = load i32, i32* %7, align 4
  %111 = sext i32 %110 to i64
  %112 = getelementptr inbounds i8*, i8** %109, i64 %111
  %113 = load i8*, i8** %112, align 8
  %114 = invoke i8* @_Z9hasPrefixPKcS0_(i8* %113, i8* getelementptr inbounds ([8 x i8], [8 x i8]* @.str.24, i64 0, i64 0))
          to label %115 unwind label %45

115:                                              ; preds = %108
  store i8* %114, i8** %9, align 8
  %116 = icmp ne i8* %114, null
  br i1 %116, label %117, label %142

117:                                              ; preds = %115
  %118 = load i8*, i8** %9, align 8
  %119 = call i32 (i8*, i8*, ...) @sscanf(i8* %118, i8* getelementptr inbounds ([4 x i8], [4 x i8]* @.str.22, i64 0, i64 0), double* %13) #12
  %120 = icmp sle i32 %119, 0
  br i1 %120, label %127, label %121

121:                                              ; preds = %117
  %122 = load double, double* %13, align 8
  %123 = fcmp ole double %122, 0.000000e+00
  br i1 %123, label %127, label %124

124:                                              ; preds = %121
  %125 = load double, double* %13, align 8
  %126 = fcmp ogt double %125, 1.000000e+00
  br i1 %126, label %127, label %138

127:                                              ; preds = %124, %121, %117
  %128 = load %struct._IO_FILE*, %struct._IO_FILE** @stdout, align 8
  %129 = invoke i32 @fflush(%struct._IO_FILE* %128)
          to label %130 unwind label %45

130:                                              ; preds = %127
  %131 = load %struct._IO_FILE*, %struct._IO_FILE** @stderr, align 8
  %132 = load i8*, i8** %9, align 8
  %133 = invoke i32 (%struct._IO_FILE*, i8*, ...) @fprintf(%struct._IO_FILE* %131, i8* getelementptr inbounds ([34 x i8], [34 x i8]* @.str.25, i64 0, i64 0), i8* %132)
          to label %134 unwind label %45

134:                                              ; preds = %130
  %135 = load %struct._IO_FILE*, %struct._IO_FILE** @stderr, align 8
  %136 = invoke i32 @fflush(%struct._IO_FILE* %135)
          to label %137 unwind label %45

137:                                              ; preds = %134
  call void @exit(i32 0) #15
  unreachable

138:                                              ; preds = %124
  %139 = load double, double* %13, align 8
  %140 = fdiv double 1.000000e+00, %139
  %141 = getelementptr inbounds %class.Solver, %class.Solver* %6, i32 0, i32 2
  store double %140, double* %141, align 8
  br label %241

142:                                              ; preds = %115
  %143 = load i8**, i8*** %5, align 8
  %144 = load i32, i32* %7, align 4
  %145 = sext i32 %144 to i64
  %146 = getelementptr inbounds i8*, i8** %143, i64 %145
  %147 = load i8*, i8** %146, align 8
  %148 = invoke i8* @_Z9hasPrefixPKcS0_(i8* %147, i8* getelementptr inbounds ([12 x i8], [12 x i8]* @.str.26, i64 0, i64 0))
          to label %149 unwind label %45

149:                                              ; preds = %142
  store i8* %148, i8** %9, align 8
  %150 = icmp ne i8* %148, null
  br i1 %150, label %151, label %177

151:                                              ; preds = %149
  %152 = load i8*, i8** %9, align 8
  %153 = call i64 @strtol(i8* %152, i8** %14, i32 10) #12
  %154 = trunc i64 %153 to i32
  store i32 %154, i32* %15, align 4
  %155 = load i8*, i8** %14, align 8
  %156 = load i8*, i8** %9, align 8
  %157 = icmp eq i8* %155, %156
  br i1 %157, label %163, label %158

158:                                              ; preds = %151
  %159 = load i8*, i8** %14, align 8
  %160 = load i8, i8* %159, align 1
  %161 = sext i8 %160 to i32
  %162 = icmp ne i32 %161, 0
  br i1 %162, label %163, label %174

163:                                              ; preds = %158, %151
  %164 = load %struct._IO_FILE*, %struct._IO_FILE** @stdout, align 8
  %165 = invoke i32 @fflush(%struct._IO_FILE* %164)
          to label %166 unwind label %45

166:                                              ; preds = %163
  %167 = load %struct._IO_FILE*, %struct._IO_FILE** @stderr, align 8
  %168 = load i8*, i8** %9, align 8
  %169 = invoke i32 (%struct._IO_FILE*, i8*, ...) @fprintf(%struct._IO_FILE* %167, i8* getelementptr inbounds ([35 x i8], [35 x i8]* @.str.27, i64 0, i64 0), i8* %168)
          to label %170 unwind label %45

170:                                              ; preds = %166
  %171 = load %struct._IO_FILE*, %struct._IO_FILE** @stderr, align 8
  %172 = invoke i32 @fflush(%struct._IO_FILE* %171)
          to label %173 unwind label %45

173:                                              ; preds = %170
  call void @exit(i32 0) #15
  unreachable

174:                                              ; preds = %158
  %175 = load i32, i32* %15, align 4
  %176 = getelementptr inbounds %class.Solver, %class.Solver* %6, i32 0, i32 11
  store i32 %175, i32* %176, align 8
  br label %240

177:                                              ; preds = %149
  %178 = load i8**, i8*** %5, align 8
  %179 = load i32, i32* %7, align 4
  %180 = sext i32 %179 to i64
  %181 = getelementptr inbounds i8*, i8** %178, i64 %180
  %182 = load i8*, i8** %181, align 8
  %183 = call i32 @strcmp(i8* %182, i8* getelementptr inbounds ([3 x i8], [3 x i8]* @.str.28, i64 0, i64 0)) #14
  %184 = icmp eq i32 %183, 0
  br i1 %184, label %201, label %185

185:                                              ; preds = %177
  %186 = load i8**, i8*** %5, align 8
  %187 = load i32, i32* %7, align 4
  %188 = sext i32 %187 to i64
  %189 = getelementptr inbounds i8*, i8** %186, i64 %188
  %190 = load i8*, i8** %189, align 8
  %191 = call i32 @strcmp(i8* %190, i8* getelementptr inbounds ([6 x i8], [6 x i8]* @.str.29, i64 0, i64 0)) #14
  %192 = icmp eq i32 %191, 0
  br i1 %192, label %201, label %193

193:                                              ; preds = %185
  %194 = load i8**, i8*** %5, align 8
  %195 = load i32, i32* %7, align 4
  %196 = sext i32 %195 to i64
  %197 = getelementptr inbounds i8*, i8** %194, i64 %196
  %198 = load i8*, i8** %197, align 8
  %199 = call i32 @strcmp(i8* %198, i8* getelementptr inbounds ([7 x i8], [7 x i8]* @.str.30, i64 0, i64 0)) #14
  %200 = icmp eq i32 %199, 0
  br i1 %200, label %201, label %204

201:                                              ; preds = %193, %185, %177
  %202 = load i8**, i8*** %5, align 8
  invoke void @_Z10printUsagePPc(i8** %202)
          to label %203 unwind label %45

203:                                              ; preds = %201
  call void @exit(i32 0) #15
  unreachable

204:                                              ; preds = %193
  %205 = load i8**, i8*** %5, align 8
  %206 = load i32, i32* %7, align 4
  %207 = sext i32 %206 to i64
  %208 = getelementptr inbounds i8*, i8** %205, i64 %207
  %209 = load i8*, i8** %208, align 8
  %210 = call i32 @strncmp(i8* %209, i8* getelementptr inbounds ([2 x i8], [2 x i8]* @.str.31, i64 0, i64 0), i64 1) #14
  %211 = icmp eq i32 %210, 0
  br i1 %211, label %212, label %227

212:                                              ; preds = %204
  %213 = load %struct._IO_FILE*, %struct._IO_FILE** @stdout, align 8
  %214 = invoke i32 @fflush(%struct._IO_FILE* %213)
          to label %215 unwind label %45

215:                                              ; preds = %212
  %216 = load %struct._IO_FILE*, %struct._IO_FILE** @stderr, align 8
  %217 = load i8**, i8*** %5, align 8
  %218 = load i32, i32* %7, align 4
  %219 = sext i32 %218 to i64
  %220 = getelementptr inbounds i8*, i8** %217, i64 %219
  %221 = load i8*, i8** %220, align 8
  %222 = invoke i32 (%struct._IO_FILE*, i8*, ...) @fprintf(%struct._IO_FILE* %216, i8* getelementptr inbounds ([24 x i8], [24 x i8]* @.str.32, i64 0, i64 0), i8* %221)
          to label %223 unwind label %45

223:                                              ; preds = %215
  %224 = load %struct._IO_FILE*, %struct._IO_FILE** @stderr, align 8
  %225 = invoke i32 @fflush(%struct._IO_FILE* %224)
          to label %226 unwind label %45

226:                                              ; preds = %223
  call void @exit(i32 0) #15
  unreachable

227:                                              ; preds = %204
  %228 = load i8**, i8*** %5, align 8
  %229 = load i32, i32* %7, align 4
  %230 = sext i32 %229 to i64
  %231 = getelementptr inbounds i8*, i8** %228, i64 %230
  %232 = load i8*, i8** %231, align 8
  %233 = load i8**, i8*** %5, align 8
  %234 = load i32, i32* %8, align 4
  %235 = add nsw i32 %234, 1
  store i32 %235, i32* %8, align 4
  %236 = sext i32 %234 to i64
  %237 = getelementptr inbounds i8*, i8** %233, i64 %236
  store i8* %232, i8** %237, align 8
  br label %238

238:                                              ; preds = %227
  br label %239

239:                                              ; preds = %238
  br label %240

240:                                              ; preds = %239, %174
  br label %241

241:                                              ; preds = %240, %138
  br label %242

242:                                              ; preds = %241, %105
  br label %243

243:                                              ; preds = %242, %74
  br label %244

244:                                              ; preds = %243
  %245 = load i32, i32* %7, align 4
  %246 = add nsw i32 %245, 1
  store i32 %246, i32* %7, align 4
  br label %26

247:                                              ; preds = %26
  %248 = load i32, i32* %8, align 4
  store i32 %248, i32* %4, align 4
  %249 = load %struct._IO_FILE*, %struct._IO_FILE** @stdout, align 8
  %250 = invoke i32 @fflush(%struct._IO_FILE* %249)
          to label %251 unwind label %45

251:                                              ; preds = %247
  %252 = load %struct._IO_FILE*, %struct._IO_FILE** @stderr, align 8
  %253 = invoke i32 (%struct._IO_FILE*, i8*, ...) @fprintf(%struct._IO_FILE* %252, i8* getelementptr inbounds ([26 x i8], [26 x i8]* @.str.33, i64 0, i64 0))
          to label %254 unwind label %45

254:                                              ; preds = %251
  %255 = load %struct._IO_FILE*, %struct._IO_FILE** @stderr, align 8
  %256 = invoke i32 @fflush(%struct._IO_FILE* %255)
          to label %257 unwind label %45

257:                                              ; preds = %254
  call void asm sideeffect "fnstcw $0", "=*m,~{dirflag},~{fpsr},~{flags}"(i16* %16) #12, !srcloc !2
  %258 = load i16, i16* %16, align 2
  %259 = zext i16 %258 to i32
  %260 = and i32 %259, -769
  %261 = or i32 %260, 512
  %262 = trunc i32 %261 to i16
  store i16 %262, i16* %17, align 2
  call void asm sideeffect "fldcw $0", "*m,~{dirflag},~{fpsr},~{flags}"(i16* %17) #12, !srcloc !3
  %263 = invoke double @_ZL7cpuTimev()
          to label %264 unwind label %45

264:                                              ; preds = %257
  store double %263, double* %18, align 8
  store %class.Solver* %6, %class.Solver** @solver, align 8
  %265 = load i32, i32* %4, align 4
  %266 = icmp eq i32 %265, 1
  br i1 %266, label %267, label %277

267:                                              ; preds = %264
  %268 = load %struct._IO_FILE*, %struct._IO_FILE** @stdout, align 8
  %269 = invoke i32 @fflush(%struct._IO_FILE* %268)
          to label %270 unwind label %45

270:                                              ; preds = %267
  %271 = load %struct._IO_FILE*, %struct._IO_FILE** @stderr, align 8
  %272 = invoke i32 (%struct._IO_FILE*, i8*, ...) @fprintf(%struct._IO_FILE* %271, i8* getelementptr inbounds ([63 x i8], [63 x i8]* @.str.34, i64 0, i64 0))
          to label %273 unwind label %45

273:                                              ; preds = %270
  %274 = load %struct._IO_FILE*, %struct._IO_FILE** @stderr, align 8
  %275 = invoke i32 @fflush(%struct._IO_FILE* %274)
          to label %276 unwind label %45

276:                                              ; preds = %273
  br label %277

277:                                              ; preds = %276, %264
  %278 = load i32, i32* %4, align 4
  %279 = icmp eq i32 %278, 1
  br i1 %279, label %280, label %282

280:                                              ; preds = %277
  %281 = load %struct._IO_FILE*, %struct._IO_FILE** @stdin, align 8
  br label %288

282:                                              ; preds = %277
  %283 = load i8**, i8*** %5, align 8
  %284 = getelementptr inbounds i8*, i8** %283, i64 1
  %285 = load i8*, i8** %284, align 8
  %286 = invoke %struct._IO_FILE* @fopen(i8* %285, i8* getelementptr inbounds ([3 x i8], [3 x i8]* @.str.35, i64 0, i64 0))
          to label %287 unwind label %45

287:                                              ; preds = %282
  br label %288

288:                                              ; preds = %287, %280
  %289 = phi %struct._IO_FILE* [ %281, %280 ], [ %286, %287 ]
  store %struct._IO_FILE* %289, %struct._IO_FILE** %19, align 8
  %290 = load %struct._IO_FILE*, %struct._IO_FILE** %19, align 8
  %291 = icmp eq %struct._IO_FILE* %290, null
  br i1 %291, label %292, label %311

292:                                              ; preds = %288
  %293 = load %struct._IO_FILE*, %struct._IO_FILE** @stdout, align 8
  %294 = invoke i32 @fflush(%struct._IO_FILE* %293)
          to label %295 unwind label %45

295:                                              ; preds = %292
  %296 = load %struct._IO_FILE*, %struct._IO_FILE** @stderr, align 8
  %297 = load i32, i32* %4, align 4
  %298 = icmp eq i32 %297, 1
  br i1 %298, label %299, label %300

299:                                              ; preds = %295
  br label %304

300:                                              ; preds = %295
  %301 = load i8**, i8*** %5, align 8
  %302 = getelementptr inbounds i8*, i8** %301, i64 1
  %303 = load i8*, i8** %302, align 8
  br label %304

304:                                              ; preds = %300, %299
  %305 = phi i8* [ getelementptr inbounds ([8 x i8], [8 x i8]* @.str.37, i64 0, i64 0), %299 ], [ %303, %300 ]
  %306 = invoke i32 (%struct._IO_FILE*, i8*, ...) @fprintf(%struct._IO_FILE* %296, i8* getelementptr inbounds ([32 x i8], [32 x i8]* @.str.36, i64 0, i64 0), i8* %305)
          to label %307 unwind label %45

307:                                              ; preds = %304
  %308 = load %struct._IO_FILE*, %struct._IO_FILE** @stderr, align 8
  %309 = invoke i32 @fflush(%struct._IO_FILE* %308)
          to label %310 unwind label %45

310:                                              ; preds = %307
  call void @exit(i32 1) #15
  unreachable

311:                                              ; preds = %288
  %312 = load %struct._IO_FILE*, %struct._IO_FILE** @stdout, align 8
  %313 = invoke i32 @fflush(%struct._IO_FILE* %312)
          to label %314 unwind label %45

314:                                              ; preds = %311
  %315 = load %struct._IO_FILE*, %struct._IO_FILE** @stderr, align 8
  %316 = invoke i32 (%struct._IO_FILE*, i8*, ...) @fprintf(%struct._IO_FILE* %315, i8* getelementptr inbounds ([81 x i8], [81 x i8]* @.str.38, i64 0, i64 0))
          to label %317 unwind label %45

317:                                              ; preds = %314
  %318 = load %struct._IO_FILE*, %struct._IO_FILE** @stderr, align 8
  %319 = invoke i32 @fflush(%struct._IO_FILE* %318)
          to label %320 unwind label %45

320:                                              ; preds = %317
  %321 = load %struct._IO_FILE*, %struct._IO_FILE** @stdout, align 8
  %322 = invoke i32 @fflush(%struct._IO_FILE* %321)
          to label %323 unwind label %45

323:                                              ; preds = %320
  %324 = load %struct._IO_FILE*, %struct._IO_FILE** @stderr, align 8
  %325 = invoke i32 (%struct._IO_FILE*, i8*, ...) @fprintf(%struct._IO_FILE* %324, i8* getelementptr inbounds ([81 x i8], [81 x i8]* @.str.39, i64 0, i64 0))
          to label %326 unwind label %45

326:                                              ; preds = %323
  %327 = load %struct._IO_FILE*, %struct._IO_FILE** @stderr, align 8
  %328 = invoke i32 @fflush(%struct._IO_FILE* %327)
          to label %329 unwind label %45

329:                                              ; preds = %326
  %330 = load %struct._IO_FILE*, %struct._IO_FILE** %19, align 8
  invoke void @_ZL12parse_DIMACSP8_IO_FILER6Solver(%struct._IO_FILE* %330, %class.Solver* dereferenceable(536) %6)
          to label %331 unwind label %45

331:                                              ; preds = %329
  %332 = load %struct._IO_FILE*, %struct._IO_FILE** %19, align 8
  %333 = invoke i32 @fclose(%struct._IO_FILE* %332)
          to label %334 unwind label %45

334:                                              ; preds = %331
  %335 = load i32, i32* %4, align 4
  %336 = icmp sge i32 %335, 3
  br i1 %336, label %337, label %343

337:                                              ; preds = %334
  %338 = load i8**, i8*** %5, align 8
  %339 = getelementptr inbounds i8*, i8** %338, i64 2
  %340 = load i8*, i8** %339, align 8
  %341 = invoke %struct._IO_FILE* @fopen(i8* %340, i8* getelementptr inbounds ([3 x i8], [3 x i8]* @.str.40, i64 0, i64 0))
          to label %342 unwind label %45

342:                                              ; preds = %337
  br label %344

343:                                              ; preds = %334
  br label %344

344:                                              ; preds = %343, %342
  %345 = phi %struct._IO_FILE* [ %341, %342 ], [ null, %343 ]
  store %struct._IO_FILE* %345, %struct._IO_FILE** %20, align 8
  %346 = invoke zeroext i1 @_ZN6Solver8simplifyEv(%class.Solver* %6)
          to label %347 unwind label %45

347:                                              ; preds = %344
  br i1 %346, label %370, label %348

348:                                              ; preds = %347
  %349 = load %struct._IO_FILE*, %struct._IO_FILE** @stdout, align 8
  %350 = invoke i32 @fflush(%struct._IO_FILE* %349)
          to label %351 unwind label %45

351:                                              ; preds = %348
  %352 = load %struct._IO_FILE*, %struct._IO_FILE** @stderr, align 8
  %353 = invoke i32 (%struct._IO_FILE*, i8*, ...) @fprintf(%struct._IO_FILE* %352, i8* getelementptr inbounds ([28 x i8], [28 x i8]* @.str.41, i64 0, i64 0))
          to label %354 unwind label %45

354:                                              ; preds = %351
  %355 = load %struct._IO_FILE*, %struct._IO_FILE** @stderr, align 8
  %356 = invoke i32 @fflush(%struct._IO_FILE* %355)
          to label %357 unwind label %45

357:                                              ; preds = %354
  %358 = load %struct._IO_FILE*, %struct._IO_FILE** %20, align 8
  %359 = icmp ne %struct._IO_FILE* %358, null
  br i1 %359, label %360, label %367

360:                                              ; preds = %357
  %361 = load %struct._IO_FILE*, %struct._IO_FILE** %20, align 8
  %362 = invoke i32 (%struct._IO_FILE*, i8*, ...) @fprintf(%struct._IO_FILE* %361, i8* getelementptr inbounds ([7 x i8], [7 x i8]* @.str.42, i64 0, i64 0))
          to label %363 unwind label %45

363:                                              ; preds = %360
  %364 = load %struct._IO_FILE*, %struct._IO_FILE** %20, align 8
  %365 = invoke i32 @fclose(%struct._IO_FILE* %364)
          to label %366 unwind label %45

366:                                              ; preds = %363
  br label %367

367:                                              ; preds = %366, %357
  %368 = invoke i32 (i8*, ...) @printf(i8* getelementptr inbounds ([15 x i8], [15 x i8]* @.str.43, i64 0, i64 0))
          to label %369 unwind label %45

369:                                              ; preds = %367
  call void @exit(i32 20) #15
  unreachable

370:                                              ; preds = %347
  %371 = invoke zeroext i1 @_ZN6Solver5solveEv(%class.Solver* %6)
          to label %372 unwind label %45

372:                                              ; preds = %370
  %373 = zext i1 %371 to i8
  store i8 %373, i8* %21, align 1
  invoke void @_Z10printStatsR6Solver(%class.Solver* dereferenceable(536) %6)
          to label %374 unwind label %45

374:                                              ; preds = %372
  %375 = load %struct._IO_FILE*, %struct._IO_FILE** @stdout, align 8
  %376 = invoke i32 @fflush(%struct._IO_FILE* %375)
          to label %377 unwind label %45

377:                                              ; preds = %374
  %378 = load %struct._IO_FILE*, %struct._IO_FILE** @stderr, align 8
  %379 = invoke i32 (%struct._IO_FILE*, i8*, ...) @fprintf(%struct._IO_FILE* %378, i8* getelementptr inbounds ([2 x i8], [2 x i8]* @.str.15, i64 0, i64 0))
          to label %380 unwind label %45

380:                                              ; preds = %377
  %381 = load %struct._IO_FILE*, %struct._IO_FILE** @stderr, align 8
  %382 = invoke i32 @fflush(%struct._IO_FILE* %381)
          to label %383 unwind label %45

383:                                              ; preds = %380
  %384 = load i8, i8* %21, align 1
  %385 = trunc i8 %384 to i1
  %386 = zext i1 %385 to i64
  %387 = select i1 %385, i8* getelementptr inbounds ([13 x i8], [13 x i8]* @.str.44, i64 0, i64 0), i8* getelementptr inbounds ([15 x i8], [15 x i8]* @.str.43, i64 0, i64 0)
  %388 = invoke i32 (i8*, ...) @printf(i8* %387)
          to label %389 unwind label %45

389:                                              ; preds = %383
  %390 = load %struct._IO_FILE*, %struct._IO_FILE** %20, align 8
  %391 = icmp ne %struct._IO_FILE* %390, null
  br i1 %391, label %392, label %451

392:                                              ; preds = %389
  %393 = load i8, i8* %21, align 1
  %394 = trunc i8 %393 to i1
  br i1 %394, label %395, label %443

395:                                              ; preds = %392
  %396 = load %struct._IO_FILE*, %struct._IO_FILE** %20, align 8
  %397 = invoke i32 (%struct._IO_FILE*, i8*, ...) @fprintf(%struct._IO_FILE* %396, i8* getelementptr inbounds ([5 x i8], [5 x i8]* @.str.45, i64 0, i64 0))
          to label %398 unwind label %45

398:                                              ; preds = %395
  store i32 0, i32* %22, align 4
  br label %399

399:                                              ; preds = %436, %398
  %400 = load i32, i32* %22, align 4
  %401 = invoke i32 @_ZNK6Solver5nVarsEv(%class.Solver* %6)
          to label %402 unwind label %45

402:                                              ; preds = %399
  %403 = icmp slt i32 %400, %401
  br i1 %403, label %404, label %439

404:                                              ; preds = %402
  %405 = getelementptr inbounds %class.Solver, %class.Solver* %6, i32 0, i32 0
  %406 = load i32, i32* %22, align 4
  %407 = invoke dereferenceable(1) %class.lbool* @_ZN3vecI5lboolEixEi(%class.vec* %405, i32 %406)
          to label %408 unwind label %45

408:                                              ; preds = %404
  %409 = bitcast %class.lbool* %23 to i8*
  call void @llvm.memcpy.p0i8.p0i8.i64(i8* align 1 %409, i8* align 1 getelementptr inbounds (%class.lbool, %class.lbool* @_ZL7l_Undef, i32 0, i32 0), i64 1, i1 false)
  %410 = getelementptr inbounds %class.lbool, %class.lbool* %23, i32 0, i32 0
  %411 = load i8, i8* %410, align 1
  %412 = invoke zeroext i1 @_ZNK5lboolneES_(%class.lbool* %407, i8 %411)
          to label %413 unwind label %45

413:                                              ; preds = %408
  br i1 %412, label %414, label %435

414:                                              ; preds = %413
  %415 = load %struct._IO_FILE*, %struct._IO_FILE** %20, align 8
  %416 = load i32, i32* %22, align 4
  %417 = icmp eq i32 %416, 0
  %418 = zext i1 %417 to i64
  %419 = select i1 %417, i8* getelementptr inbounds ([1 x i8], [1 x i8]* @.str.47, i64 0, i64 0), i8* getelementptr inbounds ([2 x i8], [2 x i8]* @.str.48, i64 0, i64 0)
  %420 = getelementptr inbounds %class.Solver, %class.Solver* %6, i32 0, i32 0
  %421 = load i32, i32* %22, align 4
  %422 = invoke dereferenceable(1) %class.lbool* @_ZN3vecI5lboolEixEi(%class.vec* %420, i32 %421)
          to label %423 unwind label %45

423:                                              ; preds = %414
  %424 = bitcast %class.lbool* %24 to i8*
  call void @llvm.memcpy.p0i8.p0i8.i64(i8* align 1 %424, i8* align 1 getelementptr inbounds (%class.lbool, %class.lbool* @_ZL6l_True, i32 0, i32 0), i64 1, i1 false)
  %425 = getelementptr inbounds %class.lbool, %class.lbool* %24, i32 0, i32 0
  %426 = load i8, i8* %425, align 1
  %427 = invoke zeroext i1 @_ZNK5lbooleqES_(%class.lbool* %422, i8 %426)
          to label %428 unwind label %45

428:                                              ; preds = %423
  %429 = zext i1 %427 to i64
  %430 = select i1 %427, i8* getelementptr inbounds ([1 x i8], [1 x i8]* @.str.47, i64 0, i64 0), i8* getelementptr inbounds ([2 x i8], [2 x i8]* @.str.31, i64 0, i64 0)
  %431 = load i32, i32* %22, align 4
  %432 = add nsw i32 %431, 1
  %433 = invoke i32 (%struct._IO_FILE*, i8*, ...) @fprintf(%struct._IO_FILE* %415, i8* getelementptr inbounds ([7 x i8], [7 x i8]* @.str.46, i64 0, i64 0), i8* %419, i8* %430, i32 %432)
          to label %434 unwind label %45

434:                                              ; preds = %428
  br label %435

435:                                              ; preds = %434, %413
  br label %436

436:                                              ; preds = %435
  %437 = load i32, i32* %22, align 4
  %438 = add nsw i32 %437, 1
  store i32 %438, i32* %22, align 4
  br label %399

439:                                              ; preds = %402
  %440 = load %struct._IO_FILE*, %struct._IO_FILE** %20, align 8
  %441 = invoke i32 (%struct._IO_FILE*, i8*, ...) @fprintf(%struct._IO_FILE* %440, i8* getelementptr inbounds ([4 x i8], [4 x i8]* @.str.49, i64 0, i64 0))
          to label %442 unwind label %45

442:                                              ; preds = %439
  br label %447

443:                                              ; preds = %392
  %444 = load %struct._IO_FILE*, %struct._IO_FILE** %20, align 8
  %445 = invoke i32 (%struct._IO_FILE*, i8*, ...) @fprintf(%struct._IO_FILE* %444, i8* getelementptr inbounds ([7 x i8], [7 x i8]* @.str.42, i64 0, i64 0))
          to label %446 unwind label %45

446:                                              ; preds = %443
  br label %447

447:                                              ; preds = %446, %442
  %448 = load %struct._IO_FILE*, %struct._IO_FILE** %20, align 8
  %449 = invoke i32 @fclose(%struct._IO_FILE* %448)
          to label %450 unwind label %45

450:                                              ; preds = %447
  br label %451

451:                                              ; preds = %450, %389
  call void @_ZN6SolverD1Ev(%class.Solver* %6) #12
  %452 = load i32, i32* %3, align 4
  ret i32 %452

453:                                              ; preds = %45
  %454 = load i8*, i8** %10, align 8
  %455 = load i32, i32* %11, align 4
  %456 = insertvalue { i8*, i32 } undef, i8* %454, 0
  %457 = insertvalue { i8*, i32 } %456, i32 %455, 1
  resume { i8*, i32 } %457
}

declare dso_local i32 @__gxx_personality_v0(...)

; Function Attrs: nounwind readonly
declare dso_local i32 @strcmp(i8*, i8*) #5

; Function Attrs: noreturn nounwind
declare dso_local void @exit(i32) #7

; Function Attrs: nounwind
declare dso_local i32 @sscanf(i8*, i8*, ...) #4

; Function Attrs: nounwind
declare dso_local i64 @strtol(i8*, i8**, i32) #4

; Function Attrs: noinline uwtable
define internal void @_ZL12parse_DIMACSP8_IO_FILER6Solver(%struct._IO_FILE* %0, %class.Solver* dereferenceable(536) %1) #0 personality i8* bitcast (i32 (...)* @__gxx_personality_v0 to i8*) {
  %3 = alloca %struct._IO_FILE*, align 8
  %4 = alloca %class.Solver*, align 8
  %5 = alloca %class.StreamBuffer*, align 8
  %6 = alloca i8*
  %7 = alloca i32
  store %struct._IO_FILE* %0, %struct._IO_FILE** %3, align 8
  store %class.Solver* %1, %class.Solver** %4, align 8
  %8 = call i8* @_Znwm(i64 1048592) #16
  %9 = bitcast i8* %8 to %class.StreamBuffer*
  %10 = load %struct._IO_FILE*, %struct._IO_FILE** %3, align 8
  invoke void @_ZN12StreamBufferC2EP8_IO_FILE(%class.StreamBuffer* %9, %struct._IO_FILE* %10)
          to label %11 unwind label %19

11:                                               ; preds = %2
  store %class.StreamBuffer* %9, %class.StreamBuffer** %5, align 8
  %12 = load %class.StreamBuffer*, %class.StreamBuffer** %5, align 8
  %13 = load %class.Solver*, %class.Solver** %4, align 8
  call void @_ZL17parse_DIMACS_mainI12StreamBufferEvRT_R6Solver(%class.StreamBuffer* dereferenceable(1048592) %12, %class.Solver* dereferenceable(536) %13)
  %14 = load %class.StreamBuffer*, %class.StreamBuffer** %5, align 8
  %15 = icmp eq %class.StreamBuffer* %14, null
  br i1 %15, label %18, label %16

16:                                               ; preds = %11
  %17 = bitcast %class.StreamBuffer* %14 to i8*
  call void @_ZdlPv(i8* %17) #17
  br label %18

18:                                               ; preds = %16, %11
  ret void

19:                                               ; preds = %2
  %20 = landingpad { i8*, i32 }
          cleanup
  %21 = extractvalue { i8*, i32 } %20, 0
  store i8* %21, i8** %6, align 8
  %22 = extractvalue { i8*, i32 } %20, 1
  store i32 %22, i32* %7, align 4
  call void @_ZdlPv(i8* %8) #17
  br label %23

23:                                               ; preds = %19
  %24 = load i8*, i8** %6, align 8
  %25 = load i32, i32* %7, align 4
  %26 = insertvalue { i8*, i32 } undef, i8* %24, 0
  %27 = insertvalue { i8*, i32 } %26, i32 %25, 1
  resume { i8*, i32 } %27
}

declare dso_local i32 @printf(i8*, ...) #2

; Function Attrs: noinline uwtable
define linkonce_odr dso_local zeroext i1 @_ZN6Solver5solveEv(%class.Solver* %0) #0 comdat align 2 personality i8* bitcast (i32 (...)* @__gxx_personality_v0 to i8*) {
  %2 = alloca %class.Solver*, align 8
  %3 = alloca %class.vec.0, align 8
  %4 = alloca i8*
  %5 = alloca i32
  store %class.Solver* %0, %class.Solver** %2, align 8
  %6 = load %class.Solver*, %class.Solver** %2, align 8
  call void @_ZN3vecI3LitEC2Ev(%class.vec.0* %3)
  %7 = invoke zeroext i1 @_ZN6Solver5solveERK3vecI3LitE(%class.Solver* %6, %class.vec.0* dereferenceable(16) %3)
          to label %8 unwind label %9

8:                                                ; preds = %1
  call void @_ZN3vecI3LitED2Ev(%class.vec.0* %3) #12
  ret i1 %7

9:                                                ; preds = %1
  %10 = landingpad { i8*, i32 }
          cleanup
  %11 = extractvalue { i8*, i32 } %10, 0
  store i8* %11, i8** %4, align 8
  %12 = extractvalue { i8*, i32 } %10, 1
  store i32 %12, i32* %5, align 4
  call void @_ZN3vecI3LitED2Ev(%class.vec.0* %3) #12
  br label %13

13:                                               ; preds = %9
  %14 = load i8*, i8** %4, align 8
  %15 = load i32, i32* %5, align 4
  %16 = insertvalue { i8*, i32 } undef, i8* %14, 0
  %17 = insertvalue { i8*, i32 } %16, i32 %15, 1
  resume { i8*, i32 } %17
}

; Function Attrs: noinline uwtable
define linkonce_odr dso_local i32 @_ZNK6Solver5nVarsEv(%class.Solver* %0) #0 comdat align 2 {
  %2 = alloca %class.Solver*, align 8
  store %class.Solver* %0, %class.Solver** %2, align 8
  %3 = load %class.Solver*, %class.Solver** %2, align 8
  %4 = getelementptr inbounds %class.Solver, %class.Solver* %3, i32 0, i32 28
  %5 = call i32 @_ZNK3vecIcE4sizeEv(%class.vec.4* %4)
  ret i32 %5
}

; Function Attrs: noinline nounwind uwtable
define linkonce_odr dso_local dereferenceable(1) %class.lbool* @_ZN3vecI5lboolEixEi(%class.vec* %0, i32 %1) #1 comdat align 2 {
  %3 = alloca %class.vec*, align 8
  %4 = alloca i32, align 4
  store %class.vec* %0, %class.vec** %3, align 8
  store i32 %1, i32* %4, align 4
  %5 = load %class.vec*, %class.vec** %3, align 8
  %6 = getelementptr inbounds %class.vec, %class.vec* %5, i32 0, i32 0
  %7 = load %class.lbool*, %class.lbool** %6, align 8
  %8 = load i32, i32* %4, align 4
  %9 = sext i32 %8 to i64
  %10 = getelementptr inbounds %class.lbool, %class.lbool* %7, i64 %9
  ret %class.lbool* %10
}

; Function Attrs: argmemonly nounwind willreturn
declare void @llvm.memcpy.p0i8.p0i8.i64(i8* noalias nocapture writeonly, i8* noalias nocapture readonly, i64, i1 immarg) #8

; Function Attrs: noinline nounwind uwtable
define linkonce_odr dso_local zeroext i1 @_ZNK5lboolneES_(%class.lbool* %0, i8 %1) #1 comdat align 2 {
  %3 = alloca %class.lbool, align 1
  %4 = alloca %class.lbool*, align 8
  %5 = getelementptr inbounds %class.lbool, %class.lbool* %3, i32 0, i32 0
  store i8 %1, i8* %5, align 1
  store %class.lbool* %0, %class.lbool** %4, align 8
  %6 = load %class.lbool*, %class.lbool** %4, align 8
  %7 = getelementptr inbounds %class.lbool, %class.lbool* %6, i32 0, i32 0
  %8 = load i8, i8* %7, align 1
  %9 = sext i8 %8 to i32
  %10 = getelementptr inbounds %class.lbool, %class.lbool* %3, i32 0, i32 0
  %11 = load i8, i8* %10, align 1
  %12 = sext i8 %11 to i32
  %13 = icmp ne i32 %9, %12
  ret i1 %13
}

; Function Attrs: noinline nounwind uwtable
define linkonce_odr dso_local zeroext i1 @_ZNK5lbooleqES_(%class.lbool* %0, i8 %1) #1 comdat align 2 {
  %3 = alloca %class.lbool, align 1
  %4 = alloca %class.lbool*, align 8
  %5 = getelementptr inbounds %class.lbool, %class.lbool* %3, i32 0, i32 0
  store i8 %1, i8* %5, align 1
  store %class.lbool* %0, %class.lbool** %4, align 8
  %6 = load %class.lbool*, %class.lbool** %4, align 8
  %7 = getelementptr inbounds %class.lbool, %class.lbool* %6, i32 0, i32 0
  %8 = load i8, i8* %7, align 1
  %9 = sext i8 %8 to i32
  %10 = getelementptr inbounds %class.lbool, %class.lbool* %3, i32 0, i32 0
  %11 = load i8, i8* %10, align 1
  %12 = sext i8 %11 to i32
  %13 = icmp eq i32 %9, %12
  ret i1 %13
}

; Function Attrs: noinline nounwind uwtable
define linkonce_odr dso_local i32 @_ZNK3vecIcE4sizeEv(%class.vec.4* %0) #1 comdat align 2 {
  %2 = alloca %class.vec.4*, align 8
  store %class.vec.4* %0, %class.vec.4** %2, align 8
  %3 = load %class.vec.4*, %class.vec.4** %2, align 8
  %4 = getelementptr inbounds %class.vec.4, %class.vec.4* %3, i32 0, i32 1
  %5 = load i32, i32* %4, align 8
  ret i32 %5
}

; Function Attrs: noinline nounwind uwtable
define linkonce_odr dso_local void @_ZN3vecI3LitEC2Ev(%class.vec.0* %0) unnamed_addr #1 comdat align 2 {
  %2 = alloca %class.vec.0*, align 8
  store %class.vec.0* %0, %class.vec.0** %2, align 8
  %3 = load %class.vec.0*, %class.vec.0** %2, align 8
  %4 = getelementptr inbounds %class.vec.0, %class.vec.0* %3, i32 0, i32 0
  store %class.Lit* null, %class.Lit** %4, align 8
  %5 = getelementptr inbounds %class.vec.0, %class.vec.0* %3, i32 0, i32 1
  store i32 0, i32* %5, align 8
  %6 = getelementptr inbounds %class.vec.0, %class.vec.0* %3, i32 0, i32 2
  store i32 0, i32* %6, align 4
  ret void
}

; Function Attrs: noinline nounwind uwtable
define linkonce_odr dso_local void @_ZN3vecI3LitED2Ev(%class.vec.0* %0) unnamed_addr #1 comdat align 2 personality i8* bitcast (i32 (...)* @__gxx_personality_v0 to i8*) {
  %2 = alloca %class.vec.0*, align 8
  store %class.vec.0* %0, %class.vec.0** %2, align 8
  %3 = load %class.vec.0*, %class.vec.0** %2, align 8
  invoke void @_ZN3vecI3LitE5clearEb(%class.vec.0* %3, i1 zeroext true)
          to label %4 unwind label %5

4:                                                ; preds = %1
  ret void

5:                                                ; preds = %1
  %6 = landingpad { i8*, i32 }
          catch i8* null
  %7 = extractvalue { i8*, i32 } %6, 0
  call void @__clang_call_terminate(i8* %7) #15
  unreachable
}

; Function Attrs: noinline nounwind uwtable
define linkonce_odr dso_local void @_ZN3vecI3LitE5clearEb(%class.vec.0* %0, i1 zeroext %1) #1 comdat align 2 {
  %3 = alloca %class.vec.0*, align 8
  %4 = alloca i8, align 1
  %5 = alloca i32, align 4
  store %class.vec.0* %0, %class.vec.0** %3, align 8
  %6 = zext i1 %1 to i8
  store i8 %6, i8* %4, align 1
  %7 = load %class.vec.0*, %class.vec.0** %3, align 8
  %8 = getelementptr inbounds %class.vec.0, %class.vec.0* %7, i32 0, i32 0
  %9 = load %class.Lit*, %class.Lit** %8, align 8
  %10 = icmp ne %class.Lit* %9, null
  br i1 %10, label %11, label %37

11:                                               ; preds = %2
  store i32 0, i32* %5, align 4
  br label %12

12:                                               ; preds = %23, %11
  %13 = load i32, i32* %5, align 4
  %14 = getelementptr inbounds %class.vec.0, %class.vec.0* %7, i32 0, i32 1
  %15 = load i32, i32* %14, align 8
  %16 = icmp slt i32 %13, %15
  br i1 %16, label %17, label %26

17:                                               ; preds = %12
  %18 = getelementptr inbounds %class.vec.0, %class.vec.0* %7, i32 0, i32 0
  %19 = load %class.Lit*, %class.Lit** %18, align 8
  %20 = load i32, i32* %5, align 4
  %21 = sext i32 %20 to i64
  %22 = getelementptr inbounds %class.Lit, %class.Lit* %19, i64 %21
  br label %23

23:                                               ; preds = %17
  %24 = load i32, i32* %5, align 4
  %25 = add nsw i32 %24, 1
  store i32 %25, i32* %5, align 4
  br label %12

26:                                               ; preds = %12
  %27 = getelementptr inbounds %class.vec.0, %class.vec.0* %7, i32 0, i32 1
  store i32 0, i32* %27, align 8
  %28 = load i8, i8* %4, align 1
  %29 = trunc i8 %28 to i1
  br i1 %29, label %30, label %36

30:                                               ; preds = %26
  %31 = getelementptr inbounds %class.vec.0, %class.vec.0* %7, i32 0, i32 0
  %32 = load %class.Lit*, %class.Lit** %31, align 8
  %33 = bitcast %class.Lit* %32 to i8*
  call void @free(i8* %33) #12
  %34 = getelementptr inbounds %class.vec.0, %class.vec.0* %7, i32 0, i32 0
  store %class.Lit* null, %class.Lit** %34, align 8
  %35 = getelementptr inbounds %class.vec.0, %class.vec.0* %7, i32 0, i32 2
  store i32 0, i32* %35, align 4
  br label %36

36:                                               ; preds = %30, %26
  br label %37

37:                                               ; preds = %36, %2
  ret void
}

; Function Attrs: noinline noreturn nounwind
define linkonce_odr hidden void @__clang_call_terminate(i8* %0) #9 comdat {
  %2 = call i8* @__cxa_begin_catch(i8* %0) #12
  call void @_ZSt9terminatev() #15
  unreachable
}

declare dso_local i8* @__cxa_begin_catch(i8*)

declare dso_local void @_ZSt9terminatev()

; Function Attrs: nounwind
declare dso_local void @free(i8*) #4

; Function Attrs: nobuiltin
declare dso_local noalias i8* @_Znwm(i64) #10

; Function Attrs: noinline uwtable
define linkonce_odr dso_local void @_ZN12StreamBufferC2EP8_IO_FILE(%class.StreamBuffer* %0, %struct._IO_FILE* %1) unnamed_addr #0 comdat align 2 {
  %3 = alloca %class.StreamBuffer*, align 8
  %4 = alloca %struct._IO_FILE*, align 8
  store %class.StreamBuffer* %0, %class.StreamBuffer** %3, align 8
  store %struct._IO_FILE* %1, %struct._IO_FILE** %4, align 8
  %5 = load %class.StreamBuffer*, %class.StreamBuffer** %3, align 8
  %6 = getelementptr inbounds %class.StreamBuffer, %class.StreamBuffer* %5, i32 0, i32 0
  %7 = load %struct._IO_FILE*, %struct._IO_FILE** %4, align 8
  store %struct._IO_FILE* %7, %struct._IO_FILE** %6, align 8
  %8 = getelementptr inbounds %class.StreamBuffer, %class.StreamBuffer* %5, i32 0, i32 2
  store i32 0, i32* %8, align 8
  %9 = getelementptr inbounds %class.StreamBuffer, %class.StreamBuffer* %5, i32 0, i32 3
  store i32 0, i32* %9, align 4
  call void @_ZN12StreamBuffer15assureLookaheadEv(%class.StreamBuffer* %5)
  ret void
}

; Function Attrs: noinline uwtable
define internal void @_ZL17parse_DIMACS_mainI12StreamBufferEvRT_R6Solver(%class.StreamBuffer* dereferenceable(1048592) %0, %class.Solver* dereferenceable(536) %1) #0 personality i8* bitcast (i32 (...)* @__gxx_personality_v0 to i8*) {
  %3 = alloca %class.StreamBuffer*, align 8
  %4 = alloca %class.Solver*, align 8
  %5 = alloca %class.vec.0, align 8
  %6 = alloca i8*
  %7 = alloca i32
  %8 = alloca i32, align 4
  %9 = alloca i32, align 4
  store %class.StreamBuffer* %0, %class.StreamBuffer** %3, align 8
  store %class.Solver* %1, %class.Solver** %4, align 8
  call void @_ZN3vecI3LitEC2Ev(%class.vec.0* %5)
  br label %10

10:                                               ; preds = %94, %2
  %11 = load %class.StreamBuffer*, %class.StreamBuffer** %3, align 8
  invoke void @_ZL14skipWhitespaceI12StreamBufferEvRT_(%class.StreamBuffer* dereferenceable(1048592) %11)
          to label %12 unwind label %18

12:                                               ; preds = %10
  %13 = load %class.StreamBuffer*, %class.StreamBuffer** %3, align 8
  %14 = invoke i32 @_ZN12StreamBufferdeEv(%class.StreamBuffer* %13)
          to label %15 unwind label %18

15:                                               ; preds = %12
  %16 = icmp eq i32 %14, -1
  br i1 %16, label %17, label %22

17:                                               ; preds = %15
  br label %95

18:                                               ; preds = %88, %85, %82, %77, %72, %67, %65, %61, %58, %54, %50, %47, %44, %40, %37, %34, %31, %27, %22, %12, %10
  %19 = landingpad { i8*, i32 }
          cleanup
  %20 = extractvalue { i8*, i32 } %19, 0
  store i8* %20, i8** %6, align 8
  %21 = extractvalue { i8*, i32 } %19, 1
  store i32 %21, i32* %7, align 4
  call void @_ZN3vecI3LitED2Ev(%class.vec.0* %5) #12
  br label %96

22:                                               ; preds = %15
  %23 = load %class.StreamBuffer*, %class.StreamBuffer** %3, align 8
  %24 = invoke i32 @_ZN12StreamBufferdeEv(%class.StreamBuffer* %23)
          to label %25 unwind label %18

25:                                               ; preds = %22
  %26 = icmp eq i32 %24, 112
  br i1 %26, label %27, label %72

27:                                               ; preds = %25
  %28 = load %class.StreamBuffer*, %class.StreamBuffer** %3, align 8
  %29 = invoke zeroext i1 @_ZL5matchI12StreamBufferEbRT_Pc(%class.StreamBuffer* dereferenceable(1048592) %28, i8* getelementptr inbounds ([6 x i8], [6 x i8]* @.str.52, i64 0, i64 0))
          to label %30 unwind label %18

30:                                               ; preds = %27
  br i1 %29, label %31, label %58

31:                                               ; preds = %30
  %32 = load %class.StreamBuffer*, %class.StreamBuffer** %3, align 8
  %33 = invoke i32 @_ZL8parseIntI12StreamBufferEiRT_(%class.StreamBuffer* dereferenceable(1048592) %32)
          to label %34 unwind label %18

34:                                               ; preds = %31
  store i32 %33, i32* %8, align 4
  %35 = load %class.StreamBuffer*, %class.StreamBuffer** %3, align 8
  %36 = invoke i32 @_ZL8parseIntI12StreamBufferEiRT_(%class.StreamBuffer* dereferenceable(1048592) %35)
          to label %37 unwind label %18

37:                                               ; preds = %34
  store i32 %36, i32* %9, align 4
  %38 = load %struct._IO_FILE*, %struct._IO_FILE** @stdout, align 8
  %39 = invoke i32 @fflush(%struct._IO_FILE* %38)
          to label %40 unwind label %18

40:                                               ; preds = %37
  %41 = load %struct._IO_FILE*, %struct._IO_FILE** @stderr, align 8
  %42 = load i32, i32* %8, align 4
  %43 = invoke i32 (%struct._IO_FILE*, i8*, ...) @fprintf(%struct._IO_FILE* %41, i8* getelementptr inbounds ([74 x i8], [74 x i8]* @.str.53, i64 0, i64 0), i32 %42)
          to label %44 unwind label %18

44:                                               ; preds = %40
  %45 = load %struct._IO_FILE*, %struct._IO_FILE** @stderr, align 8
  %46 = invoke i32 @fflush(%struct._IO_FILE* %45)
          to label %47 unwind label %18

47:                                               ; preds = %44
  %48 = load %struct._IO_FILE*, %struct._IO_FILE** @stdout, align 8
  %49 = invoke i32 @fflush(%struct._IO_FILE* %48)
          to label %50 unwind label %18

50:                                               ; preds = %47
  %51 = load %struct._IO_FILE*, %struct._IO_FILE** @stderr, align 8
  %52 = load i32, i32* %9, align 4
  %53 = invoke i32 (%struct._IO_FILE*, i8*, ...) @fprintf(%struct._IO_FILE* %51, i8* getelementptr inbounds ([74 x i8], [74 x i8]* @.str.54, i64 0, i64 0), i32 %52)
          to label %54 unwind label %18

54:                                               ; preds = %50
  %55 = load %struct._IO_FILE*, %struct._IO_FILE** @stderr, align 8
  %56 = invoke i32 @fflush(%struct._IO_FILE* %55)
          to label %57 unwind label %18

57:                                               ; preds = %54
  br label %71

58:                                               ; preds = %30
  %59 = load %struct._IO_FILE*, %struct._IO_FILE** @stdout, align 8
  %60 = invoke i32 @fflush(%struct._IO_FILE* %59)
          to label %61 unwind label %18

61:                                               ; preds = %58
  %62 = load %struct._IO_FILE*, %struct._IO_FILE** @stderr, align 8
  %63 = load %class.StreamBuffer*, %class.StreamBuffer** %3, align 8
  %64 = invoke i32 @_ZN12StreamBufferdeEv(%class.StreamBuffer* %63)
          to label %65 unwind label %18

65:                                               ; preds = %61
  %66 = invoke i32 (%struct._IO_FILE*, i8*, ...) @fprintf(%struct._IO_FILE* %62, i8* getelementptr inbounds ([34 x i8], [34 x i8]* @.str.55, i64 0, i64 0), i32 %64)
          to label %67 unwind label %18

67:                                               ; preds = %65
  %68 = load %struct._IO_FILE*, %struct._IO_FILE** @stderr, align 8
  %69 = invoke i32 @fflush(%struct._IO_FILE* %68)
          to label %70 unwind label %18

70:                                               ; preds = %67
  call void @exit(i32 3) #15
  unreachable

71:                                               ; preds = %57
  br label %93

72:                                               ; preds = %25
  %73 = load %class.StreamBuffer*, %class.StreamBuffer** %3, align 8
  %74 = invoke i32 @_ZN12StreamBufferdeEv(%class.StreamBuffer* %73)
          to label %75 unwind label %18

75:                                               ; preds = %72
  %76 = icmp eq i32 %74, 99
  br i1 %76, label %82, label %77

77:                                               ; preds = %75
  %78 = load %class.StreamBuffer*, %class.StreamBuffer** %3, align 8
  %79 = invoke i32 @_ZN12StreamBufferdeEv(%class.StreamBuffer* %78)
          to label %80 unwind label %18

80:                                               ; preds = %77
  %81 = icmp eq i32 %79, 112
  br i1 %81, label %82, label %85

82:                                               ; preds = %80, %75
  %83 = load %class.StreamBuffer*, %class.StreamBuffer** %3, align 8
  invoke void @_ZL8skipLineI12StreamBufferEvRT_(%class.StreamBuffer* dereferenceable(1048592) %83)
          to label %84 unwind label %18

84:                                               ; preds = %82
  br label %92

85:                                               ; preds = %80
  %86 = load %class.StreamBuffer*, %class.StreamBuffer** %3, align 8
  %87 = load %class.Solver*, %class.Solver** %4, align 8
  invoke void @_ZL10readClauseI12StreamBufferEvRT_R6SolverR3vecI3LitE(%class.StreamBuffer* dereferenceable(1048592) %86, %class.Solver* dereferenceable(536) %87, %class.vec.0* dereferenceable(16) %5)
          to label %88 unwind label %18

88:                                               ; preds = %85
  %89 = load %class.Solver*, %class.Solver** %4, align 8
  %90 = invoke zeroext i1 @_ZN6Solver9addClauseER3vecI3LitE(%class.Solver* %89, %class.vec.0* dereferenceable(16) %5)
          to label %91 unwind label %18

91:                                               ; preds = %88
  br label %92

92:                                               ; preds = %91, %84
  br label %93

93:                                               ; preds = %92, %71
  br label %94

94:                                               ; preds = %93
  br label %10

95:                                               ; preds = %17
  call void @_ZN3vecI3LitED2Ev(%class.vec.0* %5) #12
  ret void

96:                                               ; preds = %18
  %97 = load i8*, i8** %6, align 8
  %98 = load i32, i32* %7, align 4
  %99 = insertvalue { i8*, i32 } undef, i8* %97, 0
  %100 = insertvalue { i8*, i32 } %99, i32 %98, 1
  resume { i8*, i32 } %100
}

; Function Attrs: nobuiltin nounwind
declare dso_local void @_ZdlPv(i8*) #11

; Function Attrs: noinline uwtable
define internal void @_ZL14skipWhitespaceI12StreamBufferEvRT_(%class.StreamBuffer* dereferenceable(1048592) %0) #0 {
  %2 = alloca %class.StreamBuffer*, align 8
  store %class.StreamBuffer* %0, %class.StreamBuffer** %2, align 8
  br label %3

3:                                                ; preds = %17, %1
  %4 = load %class.StreamBuffer*, %class.StreamBuffer** %2, align 8
  %5 = call i32 @_ZN12StreamBufferdeEv(%class.StreamBuffer* %4)
  %6 = icmp sge i32 %5, 9
  br i1 %6, label %7, label %11

7:                                                ; preds = %3
  %8 = load %class.StreamBuffer*, %class.StreamBuffer** %2, align 8
  %9 = call i32 @_ZN12StreamBufferdeEv(%class.StreamBuffer* %8)
  %10 = icmp sle i32 %9, 13
  br i1 %10, label %15, label %11

11:                                               ; preds = %7, %3
  %12 = load %class.StreamBuffer*, %class.StreamBuffer** %2, align 8
  %13 = call i32 @_ZN12StreamBufferdeEv(%class.StreamBuffer* %12)
  %14 = icmp eq i32 %13, 32
  br label %15

15:                                               ; preds = %11, %7
  %16 = phi i1 [ true, %7 ], [ %14, %11 ]
  br i1 %16, label %17, label %19

17:                                               ; preds = %15
  %18 = load %class.StreamBuffer*, %class.StreamBuffer** %2, align 8
  call void @_ZN12StreamBufferppEv(%class.StreamBuffer* %18)
  br label %3

19:                                               ; preds = %15
  ret void
}

; Function Attrs: noinline nounwind uwtable
define linkonce_odr dso_local i32 @_ZN12StreamBufferdeEv(%class.StreamBuffer* %0) #1 comdat align 2 {
  %2 = alloca %class.StreamBuffer*, align 8
  store %class.StreamBuffer* %0, %class.StreamBuffer** %2, align 8
  %3 = load %class.StreamBuffer*, %class.StreamBuffer** %2, align 8
  %4 = getelementptr inbounds %class.StreamBuffer, %class.StreamBuffer* %3, i32 0, i32 2
  %5 = load i32, i32* %4, align 8
  %6 = getelementptr inbounds %class.StreamBuffer, %class.StreamBuffer* %3, i32 0, i32 3
  %7 = load i32, i32* %6, align 4
  %8 = icmp sge i32 %5, %7
  br i1 %8, label %9, label %10

9:                                                ; preds = %1
  br label %18

10:                                               ; preds = %1
  %11 = getelementptr inbounds %class.StreamBuffer, %class.StreamBuffer* %3, i32 0, i32 1
  %12 = getelementptr inbounds %class.StreamBuffer, %class.StreamBuffer* %3, i32 0, i32 2
  %13 = load i32, i32* %12, align 8
  %14 = sext i32 %13 to i64
  %15 = getelementptr inbounds [1048576 x i8], [1048576 x i8]* %11, i64 0, i64 %14
  %16 = load i8, i8* %15, align 1
  %17 = sext i8 %16 to i32
  br label %18

18:                                               ; preds = %10, %9
  %19 = phi i32 [ -1, %9 ], [ %17, %10 ]
  ret i32 %19
}

; Function Attrs: noinline uwtable
define internal zeroext i1 @_ZL5matchI12StreamBufferEbRT_Pc(%class.StreamBuffer* dereferenceable(1048592) %0, i8* %1) #0 {
  %3 = alloca i1, align 1
  %4 = alloca %class.StreamBuffer*, align 8
  %5 = alloca i8*, align 8
  store %class.StreamBuffer* %0, %class.StreamBuffer** %4, align 8
  store i8* %1, i8** %5, align 8
  br label %6

6:                                                ; preds = %20, %2
  %7 = load i8*, i8** %5, align 8
  %8 = load i8, i8* %7, align 1
  %9 = sext i8 %8 to i32
  %10 = icmp ne i32 %9, 0
  br i1 %10, label %11, label %24

11:                                               ; preds = %6
  %12 = load i8*, i8** %5, align 8
  %13 = load i8, i8* %12, align 1
  %14 = sext i8 %13 to i32
  %15 = load %class.StreamBuffer*, %class.StreamBuffer** %4, align 8
  %16 = call i32 @_ZN12StreamBufferdeEv(%class.StreamBuffer* %15)
  %17 = icmp ne i32 %14, %16
  br i1 %17, label %18, label %19

18:                                               ; preds = %11
  store i1 false, i1* %3, align 1
  br label %25

19:                                               ; preds = %11
  br label %20

20:                                               ; preds = %19
  %21 = load i8*, i8** %5, align 8
  %22 = getelementptr inbounds i8, i8* %21, i32 1
  store i8* %22, i8** %5, align 8
  %23 = load %class.StreamBuffer*, %class.StreamBuffer** %4, align 8
  call void @_ZN12StreamBufferppEv(%class.StreamBuffer* %23)
  br label %6

24:                                               ; preds = %6
  store i1 true, i1* %3, align 1
  br label %25

25:                                               ; preds = %24, %18
  %26 = load i1, i1* %3, align 1
  ret i1 %26
}

; Function Attrs: noinline uwtable
define internal i32 @_ZL8parseIntI12StreamBufferEiRT_(%class.StreamBuffer* dereferenceable(1048592) %0) #0 {
  %2 = alloca %class.StreamBuffer*, align 8
  %3 = alloca i32, align 4
  %4 = alloca i8, align 1
  store %class.StreamBuffer* %0, %class.StreamBuffer** %2, align 8
  store i32 0, i32* %3, align 4
  store i8 0, i8* %4, align 1
  %5 = load %class.StreamBuffer*, %class.StreamBuffer** %2, align 8
  call void @_ZL14skipWhitespaceI12StreamBufferEvRT_(%class.StreamBuffer* dereferenceable(1048592) %5)
  %6 = load %class.StreamBuffer*, %class.StreamBuffer** %2, align 8
  %7 = call i32 @_ZN12StreamBufferdeEv(%class.StreamBuffer* %6)
  %8 = icmp eq i32 %7, 45
  br i1 %8, label %9, label %11

9:                                                ; preds = %1
  store i8 1, i8* %4, align 1
  %10 = load %class.StreamBuffer*, %class.StreamBuffer** %2, align 8
  call void @_ZN12StreamBufferppEv(%class.StreamBuffer* %10)
  br label %18

11:                                               ; preds = %1
  %12 = load %class.StreamBuffer*, %class.StreamBuffer** %2, align 8
  %13 = call i32 @_ZN12StreamBufferdeEv(%class.StreamBuffer* %12)
  %14 = icmp eq i32 %13, 43
  br i1 %14, label %15, label %17

15:                                               ; preds = %11
  %16 = load %class.StreamBuffer*, %class.StreamBuffer** %2, align 8
  call void @_ZN12StreamBufferppEv(%class.StreamBuffer* %16)
  br label %17

17:                                               ; preds = %15, %11
  br label %18

18:                                               ; preds = %17, %9
  %19 = load %class.StreamBuffer*, %class.StreamBuffer** %2, align 8
  %20 = call i32 @_ZN12StreamBufferdeEv(%class.StreamBuffer* %19)
  %21 = icmp slt i32 %20, 48
  br i1 %21, label %26, label %22

22:                                               ; preds = %18
  %23 = load %class.StreamBuffer*, %class.StreamBuffer** %2, align 8
  %24 = call i32 @_ZN12StreamBufferdeEv(%class.StreamBuffer* %23)
  %25 = icmp sgt i32 %24, 57
  br i1 %25, label %26, label %35

26:                                               ; preds = %22, %18
  %27 = load %struct._IO_FILE*, %struct._IO_FILE** @stdout, align 8
  %28 = call i32 @fflush(%struct._IO_FILE* %27)
  %29 = load %struct._IO_FILE*, %struct._IO_FILE** @stderr, align 8
  %30 = load %class.StreamBuffer*, %class.StreamBuffer** %2, align 8
  %31 = call i32 @_ZN12StreamBufferdeEv(%class.StreamBuffer* %30)
  %32 = call i32 (%struct._IO_FILE*, i8*, ...) @fprintf(%struct._IO_FILE* %29, i8* getelementptr inbounds ([34 x i8], [34 x i8]* @.str.55, i64 0, i64 0), i32 %31)
  %33 = load %struct._IO_FILE*, %struct._IO_FILE** @stderr, align 8
  %34 = call i32 @fflush(%struct._IO_FILE* %33)
  call void @exit(i32 3) #15
  unreachable

35:                                               ; preds = %22
  br label %36

36:                                               ; preds = %46, %35
  %37 = load %class.StreamBuffer*, %class.StreamBuffer** %2, align 8
  %38 = call i32 @_ZN12StreamBufferdeEv(%class.StreamBuffer* %37)
  %39 = icmp sge i32 %38, 48
  br i1 %39, label %40, label %44

40:                                               ; preds = %36
  %41 = load %class.StreamBuffer*, %class.StreamBuffer** %2, align 8
  %42 = call i32 @_ZN12StreamBufferdeEv(%class.StreamBuffer* %41)
  %43 = icmp sle i32 %42, 57
  br label %44

44:                                               ; preds = %40, %36
  %45 = phi i1 [ false, %36 ], [ %43, %40 ]
  br i1 %45, label %46, label %54

46:                                               ; preds = %44
  %47 = load i32, i32* %3, align 4
  %48 = mul nsw i32 %47, 10
  %49 = load %class.StreamBuffer*, %class.StreamBuffer** %2, align 8
  %50 = call i32 @_ZN12StreamBufferdeEv(%class.StreamBuffer* %49)
  %51 = sub nsw i32 %50, 48
  %52 = add nsw i32 %48, %51
  store i32 %52, i32* %3, align 4
  %53 = load %class.StreamBuffer*, %class.StreamBuffer** %2, align 8
  call void @_ZN12StreamBufferppEv(%class.StreamBuffer* %53)
  br label %36

54:                                               ; preds = %44
  %55 = load i8, i8* %4, align 1
  %56 = trunc i8 %55 to i1
  br i1 %56, label %57, label %60

57:                                               ; preds = %54
  %58 = load i32, i32* %3, align 4
  %59 = sub nsw i32 0, %58
  br label %62

60:                                               ; preds = %54
  %61 = load i32, i32* %3, align 4
  br label %62

62:                                               ; preds = %60, %57
  %63 = phi i32 [ %59, %57 ], [ %61, %60 ]
  ret i32 %63
}

; Function Attrs: noinline uwtable
define internal void @_ZL8skipLineI12StreamBufferEvRT_(%class.StreamBuffer* dereferenceable(1048592) %0) #0 {
  %2 = alloca %class.StreamBuffer*, align 8
  store %class.StreamBuffer* %0, %class.StreamBuffer** %2, align 8
  br label %3

3:                                                ; preds = %18, %1
  %4 = load %class.StreamBuffer*, %class.StreamBuffer** %2, align 8
  %5 = call i32 @_ZN12StreamBufferdeEv(%class.StreamBuffer* %4)
  %6 = icmp eq i32 %5, -1
  br i1 %6, label %11, label %7

7:                                                ; preds = %3
  %8 = load %class.StreamBuffer*, %class.StreamBuffer** %2, align 8
  %9 = call i32 @_ZN12StreamBufferdeEv(%class.StreamBuffer* %8)
  %10 = icmp eq i32 %9, 0
  br i1 %10, label %11, label %12

11:                                               ; preds = %7, %3
  br label %20

12:                                               ; preds = %7
  %13 = load %class.StreamBuffer*, %class.StreamBuffer** %2, align 8
  %14 = call i32 @_ZN12StreamBufferdeEv(%class.StreamBuffer* %13)
  %15 = icmp eq i32 %14, 10
  br i1 %15, label %16, label %18

16:                                               ; preds = %12
  %17 = load %class.StreamBuffer*, %class.StreamBuffer** %2, align 8
  call void @_ZN12StreamBufferppEv(%class.StreamBuffer* %17)
  br label %20

18:                                               ; preds = %12
  %19 = load %class.StreamBuffer*, %class.StreamBuffer** %2, align 8
  call void @_ZN12StreamBufferppEv(%class.StreamBuffer* %19)
  br label %3

20:                                               ; preds = %16, %11
  ret void
}

; Function Attrs: noinline uwtable
define internal void @_ZL10readClauseI12StreamBufferEvRT_R6SolverR3vecI3LitE(%class.StreamBuffer* dereferenceable(1048592) %0, %class.Solver* dereferenceable(536) %1, %class.vec.0* dereferenceable(16) %2) #0 {
  %4 = alloca %class.StreamBuffer*, align 8
  %5 = alloca %class.Solver*, align 8
  %6 = alloca %class.vec.0*, align 8
  %7 = alloca i32, align 4
  %8 = alloca i32, align 4
  %9 = alloca %class.Lit, align 4
  %10 = alloca %class.Lit, align 4
  store %class.StreamBuffer* %0, %class.StreamBuffer** %4, align 8
  store %class.Solver* %1, %class.Solver** %5, align 8
  store %class.vec.0* %2, %class.vec.0** %6, align 8
  %11 = load %class.vec.0*, %class.vec.0** %6, align 8
  call void @_ZN3vecI3LitE5clearEb(%class.vec.0* %11, i1 zeroext false)
  br label %12

12:                                               ; preds = %42, %3
  %13 = load %class.StreamBuffer*, %class.StreamBuffer** %4, align 8
  %14 = call i32 @_ZL8parseIntI12StreamBufferEiRT_(%class.StreamBuffer* dereferenceable(1048592) %13)
  store i32 %14, i32* %7, align 4
  %15 = load i32, i32* %7, align 4
  %16 = icmp eq i32 %15, 0
  br i1 %16, label %17, label %18

17:                                               ; preds = %12
  br label %43

18:                                               ; preds = %12
  %19 = load i32, i32* %7, align 4
  %20 = call i32 @abs(i32 %19) #13
  %21 = sub nsw i32 %20, 1
  store i32 %21, i32* %8, align 4
  br label %22

22:                                               ; preds = %27, %18
  %23 = load i32, i32* %8, align 4
  %24 = load %class.Solver*, %class.Solver** %5, align 8
  %25 = call i32 @_ZNK6Solver5nVarsEv(%class.Solver* %24)
  %26 = icmp sge i32 %23, %25
  br i1 %26, label %27, label %30

27:                                               ; preds = %22
  %28 = load %class.Solver*, %class.Solver** %5, align 8
  %29 = call i32 @_ZN6Solver6newVarEbb(%class.Solver* %28, i1 zeroext true, i1 zeroext true)
  br label %22

30:                                               ; preds = %22
  %31 = load %class.vec.0*, %class.vec.0** %6, align 8
  %32 = load i32, i32* %7, align 4
  %33 = icmp sgt i32 %32, 0
  br i1 %33, label %34, label %36

34:                                               ; preds = %30
  %35 = load i32, i32* %8, align 4
  call void @_ZN3LitC2Eib(%class.Lit* %9, i32 %35, i1 zeroext false)
  br label %42

36:                                               ; preds = %30
  %37 = load i32, i32* %8, align 4
  call void @_ZN3LitC2Eib(%class.Lit* %10, i32 %37, i1 zeroext false)
  %38 = getelementptr inbounds %class.Lit, %class.Lit* %10, i32 0, i32 0
  %39 = load i32, i32* %38, align 4
  %40 = call i32 @_Zco3Lit(i32 %39)
  %41 = getelementptr inbounds %class.Lit, %class.Lit* %9, i32 0, i32 0
  store i32 %40, i32* %41, align 4
  br label %42

42:                                               ; preds = %36, %34
  call void @_ZN3vecI3LitE4pushERKS0_(%class.vec.0* %31, %class.Lit* dereferenceable(4) %9)
  br label %12

43:                                               ; preds = %17
  ret void
}

; Function Attrs: nounwind readnone
declare dso_local i32 @abs(i32) #3

; Function Attrs: noinline uwtable
define linkonce_odr dso_local i32 @_Zco3Lit(i32 %0) #0 comdat {
  %2 = alloca %class.Lit, align 4
  %3 = alloca %class.Lit, align 4
  %4 = getelementptr inbounds %class.Lit, %class.Lit* %3, i32 0, i32 0
  store i32 %0, i32* %4, align 4
  call void @_ZN3LitC2Ev(%class.Lit* %2)
  %5 = getelementptr inbounds %class.Lit, %class.Lit* %3, i32 0, i32 0
  %6 = load i32, i32* %5, align 4
  %7 = xor i32 %6, 1
  %8 = getelementptr inbounds %class.Lit, %class.Lit* %2, i32 0, i32 0
  store i32 %7, i32* %8, align 4
  %9 = getelementptr inbounds %class.Lit, %class.Lit* %2, i32 0, i32 0
  %10 = load i32, i32* %9, align 4
  ret i32 %10
}

; Function Attrs: noinline uwtable
define linkonce_odr dso_local void @_ZN3vecI3LitE4pushERKS0_(%class.vec.0* %0, %class.Lit* dereferenceable(4) %1) #0 comdat align 2 {
  %3 = alloca %class.vec.0*, align 8
  %4 = alloca %class.Lit*, align 8
  store %class.vec.0* %0, %class.vec.0** %3, align 8
  store %class.Lit* %1, %class.Lit** %4, align 8
  %5 = load %class.vec.0*, %class.vec.0** %3, align 8
  %6 = getelementptr inbounds %class.vec.0, %class.vec.0* %5, i32 0, i32 1
  %7 = load i32, i32* %6, align 8
  %8 = getelementptr inbounds %class.vec.0, %class.vec.0* %5, i32 0, i32 2
  %9 = load i32, i32* %8, align 4
  %10 = icmp eq i32 %7, %9
  br i1 %10, label %11, label %29

11:                                               ; preds = %2
  %12 = getelementptr inbounds %class.vec.0, %class.vec.0* %5, i32 0, i32 2
  %13 = load i32, i32* %12, align 4
  %14 = mul nsw i32 %13, 3
  %15 = add nsw i32 %14, 1
  %16 = ashr i32 %15, 1
  %17 = call i32 @_ZN3vecI3LitE4imaxEii(i32 2, i32 %16)
  %18 = getelementptr inbounds %class.vec.0, %class.vec.0* %5, i32 0, i32 2
  store i32 %17, i32* %18, align 4
  %19 = getelementptr inbounds %class.vec.0, %class.vec.0* %5, i32 0, i32 0
  %20 = load %class.Lit*, %class.Lit** %19, align 8
  %21 = bitcast %class.Lit* %20 to i8*
  %22 = getelementptr inbounds %class.vec.0, %class.vec.0* %5, i32 0, i32 2
  %23 = load i32, i32* %22, align 4
  %24 = sext i32 %23 to i64
  %25 = mul i64 %24, 4
  %26 = call i8* @realloc(i8* %21, i64 %25) #12
  %27 = bitcast i8* %26 to %class.Lit*
  %28 = getelementptr inbounds %class.vec.0, %class.vec.0* %5, i32 0, i32 0
  store %class.Lit* %27, %class.Lit** %28, align 8
  br label %29

29:                                               ; preds = %11, %2
  %30 = load %class.Lit*, %class.Lit** %4, align 8
  %31 = getelementptr inbounds %class.vec.0, %class.vec.0* %5, i32 0, i32 0
  %32 = load %class.Lit*, %class.Lit** %31, align 8
  %33 = getelementptr inbounds %class.vec.0, %class.vec.0* %5, i32 0, i32 1
  %34 = load i32, i32* %33, align 8
  %35 = add nsw i32 %34, 1
  store i32 %35, i32* %33, align 8
  %36 = sext i32 %34 to i64
  %37 = getelementptr inbounds %class.Lit, %class.Lit* %32, i64 %36
  %38 = bitcast %class.Lit* %37 to i8*
  %39 = bitcast %class.Lit* %30 to i8*
  call void @llvm.memcpy.p0i8.p0i8.i64(i8* align 4 %38, i8* align 4 %39, i64 4, i1 false)
  ret void
}

; Function Attrs: noinline nounwind uwtable
define linkonce_odr dso_local i32 @_ZN3vecI3LitE4imaxEii(i32 %0, i32 %1) #1 comdat align 2 {
  %3 = alloca i32, align 4
  %4 = alloca i32, align 4
  %5 = alloca i32, align 4
  store i32 %0, i32* %3, align 4
  store i32 %1, i32* %4, align 4
  %6 = load i32, i32* %4, align 4
  %7 = load i32, i32* %3, align 4
  %8 = sub nsw i32 %6, %7
  %9 = ashr i32 %8, 31
  store i32 %9, i32* %5, align 4
  %10 = load i32, i32* %3, align 4
  %11 = load i32, i32* %5, align 4
  %12 = and i32 %10, %11
  %13 = load i32, i32* %4, align 4
  %14 = load i32, i32* %5, align 4
  %15 = xor i32 %14, -1
  %16 = and i32 %13, %15
  %17 = add nsw i32 %12, %16
  ret i32 %17
}

; Function Attrs: nounwind
declare dso_local i8* @realloc(i8*, i64) #4

; Function Attrs: noinline nounwind uwtable
define linkonce_odr dso_local void @_ZN3LitC2Ev(%class.Lit* %0) unnamed_addr #1 comdat align 2 {
  %2 = alloca %class.Lit*, align 8
  store %class.Lit* %0, %class.Lit** %2, align 8
  %3 = load %class.Lit*, %class.Lit** %2, align 8
  %4 = getelementptr inbounds %class.Lit, %class.Lit* %3, i32 0, i32 0
  store i32 -2, i32* %4, align 4
  ret void
}

; Function Attrs: noinline uwtable
define linkonce_odr dso_local void @_ZN12StreamBufferppEv(%class.StreamBuffer* %0) #0 comdat align 2 {
  %2 = alloca %class.StreamBuffer*, align 8
  store %class.StreamBuffer* %0, %class.StreamBuffer** %2, align 8
  %3 = load %class.StreamBuffer*, %class.StreamBuffer** %2, align 8
  %4 = getelementptr inbounds %class.StreamBuffer, %class.StreamBuffer* %3, i32 0, i32 2
  %5 = load i32, i32* %4, align 8
  %6 = add nsw i32 %5, 1
  store i32 %6, i32* %4, align 8
  call void @_ZN12StreamBuffer15assureLookaheadEv(%class.StreamBuffer* %3)
  ret void
}

; Function Attrs: noinline uwtable
define linkonce_odr dso_local void @_ZN12StreamBuffer15assureLookaheadEv(%class.StreamBuffer* %0) #0 comdat align 2 {
  %2 = alloca %class.StreamBuffer*, align 8
  store %class.StreamBuffer* %0, %class.StreamBuffer** %2, align 8
  %3 = load %class.StreamBuffer*, %class.StreamBuffer** %2, align 8
  %4 = getelementptr inbounds %class.StreamBuffer, %class.StreamBuffer* %3, i32 0, i32 2
  %5 = load i32, i32* %4, align 8
  %6 = getelementptr inbounds %class.StreamBuffer, %class.StreamBuffer* %3, i32 0, i32 3
  %7 = load i32, i32* %6, align 4
  %8 = icmp sge i32 %5, %7
  br i1 %8, label %9, label %19

9:                                                ; preds = %1
  %10 = getelementptr inbounds %class.StreamBuffer, %class.StreamBuffer* %3, i32 0, i32 2
  store i32 0, i32* %10, align 8
  %11 = getelementptr inbounds %class.StreamBuffer, %class.StreamBuffer* %3, i32 0, i32 0
  %12 = load %struct._IO_FILE*, %struct._IO_FILE** %11, align 8
  %13 = call i32 @fileno(%struct._IO_FILE* %12) #12
  %14 = getelementptr inbounds %class.StreamBuffer, %class.StreamBuffer* %3, i32 0, i32 1
  %15 = getelementptr inbounds [1048576 x i8], [1048576 x i8]* %14, i64 0, i64 0
  %16 = call i64 @read(i32 %13, i8* %15, i64 1048576)
  %17 = trunc i64 %16 to i32
  %18 = getelementptr inbounds %class.StreamBuffer, %class.StreamBuffer* %3, i32 0, i32 3
  store i32 %17, i32* %18, align 4
  br label %19

19:                                               ; preds = %9, %1
  ret void
}

; Function Attrs: nounwind
declare dso_local i32 @fileno(%struct._IO_FILE*) #4

declare dso_local i64 @read(i32, i8*, i64) #2

; Function Attrs: noinline uwtable
define internal void @_GLOBAL__sub_I_Solver.cpp() #0 section ".text.startup" {
  call void @__cxx_global_var_init.5()
  call void @__cxx_global_var_init.1.6()
  call void @__cxx_global_var_init.2.7()
  call void @__cxx_global_var_init.3.8()
  call void @__cxx_global_var_init.4.9()
  ret void
}

; Function Attrs: noinline uwtable
define internal void @__cxx_global_var_init.5() #0 section ".text.startup" {
  call void @_ZN3LitC2Eib(%class.Lit* @_ZL9lit_Undef.14, i32 -1, i1 zeroext false)
  ret void
}

; Function Attrs: noinline uwtable
define internal void @__cxx_global_var_init.1.6() #0 section ".text.startup" {
  call void @_ZN3LitC2Eib(%class.Lit* @_ZL9lit_Error.13, i32 -1, i1 zeroext true)
  ret void
}

; Function Attrs: noinline uwtable
define internal void @__cxx_global_var_init.2.7() #0 section ".text.startup" {
  %1 = call i8 @_Z7toLbooli(i32 1)
  store i8 %1, i8* getelementptr inbounds (%class.lbool, %class.lbool* @_ZL6l_True.12, i32 0, i32 0), align 1
  ret void
}

; Function Attrs: noinline uwtable
define internal void @__cxx_global_var_init.3.8() #0 section ".text.startup" {
  %1 = call i8 @_Z7toLbooli(i32 -1)
  store i8 %1, i8* getelementptr inbounds (%class.lbool, %class.lbool* @_ZL7l_False.11, i32 0, i32 0), align 1
  ret void
}

; Function Attrs: noinline uwtable
define internal void @__cxx_global_var_init.4.9() #0 section ".text.startup" {
  %1 = call i8 @_Z7toLbooli(i32 0)
  store i8 %1, i8* getelementptr inbounds (%class.lbool, %class.lbool* @_ZL7l_Undef.10, i32 0, i32 0), align 1
  ret void
}

; Function Attrs: noinline uwtable
define dso_local void @_ZN6SolverC2Ev(%class.Solver* %0) unnamed_addr #0 align 2 personality i8* bitcast (i32 (...)* @__gxx_personality_v0 to i8*) {
  %2 = alloca %class.Solver*, align 8
  %3 = alloca i8*
  %4 = alloca i32
  %5 = alloca %"struct.Solver::VarOrderLt", align 8
  store %class.Solver* %0, %class.Solver** %2, align 8
  %6 = load %class.Solver*, %class.Solver** %2, align 8
  %7 = getelementptr inbounds %class.Solver, %class.Solver* %6, i32 0, i32 0
  call void @_ZN3vecI5lboolEC2Ev(%class.vec* %7)
  %8 = getelementptr inbounds %class.Solver, %class.Solver* %6, i32 0, i32 1
  invoke void @_ZN3vecI3LitEC2Ev(%class.vec.0* %8)
          to label %9 unwind label %74

9:                                                ; preds = %1
  %10 = getelementptr inbounds %class.Solver, %class.Solver* %6, i32 0, i32 2
  store double 0x3FF0D79435E50D79, double* %10, align 8
  %11 = getelementptr inbounds %class.Solver, %class.Solver* %6, i32 0, i32 3
  store double 0x3FF00419A0290042, double* %11, align 8
  %12 = getelementptr inbounds %class.Solver, %class.Solver* %6, i32 0, i32 4
  store double 2.000000e-02, double* %12, align 8
  %13 = getelementptr inbounds %class.Solver, %class.Solver* %6, i32 0, i32 5
  store i32 100, i32* %13, align 8
  %14 = getelementptr inbounds %class.Solver, %class.Solver* %6, i32 0, i32 6
  store double 1.500000e+00, double* %14, align 8
  %15 = getelementptr inbounds %class.Solver, %class.Solver* %6, i32 0, i32 7
  store double 0x3FD5555555555555, double* %15, align 8
  %16 = getelementptr inbounds %class.Solver, %class.Solver* %6, i32 0, i32 8
  store double 1.100000e+00, double* %16, align 8
  %17 = getelementptr inbounds %class.Solver, %class.Solver* %6, i32 0, i32 9
  store i8 1, i8* %17, align 8
  %18 = getelementptr inbounds %class.Solver, %class.Solver* %6, i32 0, i32 10
  store i32 1, i32* %18, align 4
  %19 = getelementptr inbounds %class.Solver, %class.Solver* %6, i32 0, i32 11
  store i32 0, i32* %19, align 8
  %20 = getelementptr inbounds %class.Solver, %class.Solver* %6, i32 0, i32 12
  store i64 0, i64* %20, align 8
  %21 = getelementptr inbounds %class.Solver, %class.Solver* %6, i32 0, i32 13
  store i64 0, i64* %21, align 8
  %22 = getelementptr inbounds %class.Solver, %class.Solver* %6, i32 0, i32 14
  store i64 0, i64* %22, align 8
  %23 = getelementptr inbounds %class.Solver, %class.Solver* %6, i32 0, i32 15
  store i64 0, i64* %23, align 8
  %24 = getelementptr inbounds %class.Solver, %class.Solver* %6, i32 0, i32 16
  store i64 0, i64* %24, align 8
  %25 = getelementptr inbounds %class.Solver, %class.Solver* %6, i32 0, i32 17
  store i64 0, i64* %25, align 8
  %26 = getelementptr inbounds %class.Solver, %class.Solver* %6, i32 0, i32 18
  store i64 0, i64* %26, align 8
  %27 = getelementptr inbounds %class.Solver, %class.Solver* %6, i32 0, i32 19
  store i64 0, i64* %27, align 8
  %28 = getelementptr inbounds %class.Solver, %class.Solver* %6, i32 0, i32 20
  store i64 0, i64* %28, align 8
  %29 = getelementptr inbounds %class.Solver, %class.Solver* %6, i32 0, i32 21
  store i8 1, i8* %29, align 8
  %30 = getelementptr inbounds %class.Solver, %class.Solver* %6, i32 0, i32 22
  invoke void @_ZN3vecIP6ClauseEC2Ev(%class.vec.1* %30)
          to label %31 unwind label %78

31:                                               ; preds = %9
  %32 = getelementptr inbounds %class.Solver, %class.Solver* %6, i32 0, i32 23
  invoke void @_ZN3vecIP6ClauseEC2Ev(%class.vec.1* %32)
          to label %33 unwind label %82

33:                                               ; preds = %31
  %34 = getelementptr inbounds %class.Solver, %class.Solver* %6, i32 0, i32 24
  store double 1.000000e+00, double* %34, align 8
  %35 = getelementptr inbounds %class.Solver, %class.Solver* %6, i32 0, i32 25
  invoke void @_ZN3vecIdEC2Ev(%class.vec.2* %35)
          to label %36 unwind label %86

36:                                               ; preds = %33
  %37 = getelementptr inbounds %class.Solver, %class.Solver* %6, i32 0, i32 26
  store double 1.000000e+00, double* %37, align 8
  %38 = getelementptr inbounds %class.Solver, %class.Solver* %6, i32 0, i32 27
  invoke void @_ZN3vecIS_IP6ClauseEEC2Ev(%class.vec.3* %38)
          to label %39 unwind label %90

39:                                               ; preds = %36
  %40 = getelementptr inbounds %class.Solver, %class.Solver* %6, i32 0, i32 28
  invoke void @_ZN3vecIcEC2Ev(%class.vec.4* %40)
          to label %41 unwind label %94

41:                                               ; preds = %39
  %42 = getelementptr inbounds %class.Solver, %class.Solver* %6, i32 0, i32 29
  invoke void @_ZN3vecIcEC2Ev(%class.vec.4* %42)
          to label %43 unwind label %98

43:                                               ; preds = %41
  %44 = getelementptr inbounds %class.Solver, %class.Solver* %6, i32 0, i32 30
  invoke void @_ZN3vecIcEC2Ev(%class.vec.4* %44)
          to label %45 unwind label %102

45:                                               ; preds = %43
  %46 = getelementptr inbounds %class.Solver, %class.Solver* %6, i32 0, i32 31
  invoke void @_ZN3vecI3LitEC2Ev(%class.vec.0* %46)
          to label %47 unwind label %106

47:                                               ; preds = %45
  %48 = getelementptr inbounds %class.Solver, %class.Solver* %6, i32 0, i32 32
  invoke void @_ZN3vecIiEC2Ev(%class.vec.5* %48)
          to label %49 unwind label %110

49:                                               ; preds = %47
  %50 = getelementptr inbounds %class.Solver, %class.Solver* %6, i32 0, i32 33
  invoke void @_ZN3vecIP6ClauseEC2Ev(%class.vec.1* %50)
          to label %51 unwind label %114

51:                                               ; preds = %49
  %52 = getelementptr inbounds %class.Solver, %class.Solver* %6, i32 0, i32 34
  invoke void @_ZN3vecIiEC2Ev(%class.vec.5* %52)
          to label %53 unwind label %118

53:                                               ; preds = %51
  %54 = getelementptr inbounds %class.Solver, %class.Solver* %6, i32 0, i32 35
  store i32 0, i32* %54, align 8
  %55 = getelementptr inbounds %class.Solver, %class.Solver* %6, i32 0, i32 36
  store i32 -1, i32* %55, align 4
  %56 = getelementptr inbounds %class.Solver, %class.Solver* %6, i32 0, i32 37
  store i64 0, i64* %56, align 8
  %57 = getelementptr inbounds %class.Solver, %class.Solver* %6, i32 0, i32 38
  invoke void @_ZN3vecI3LitEC2Ev(%class.vec.0* %57)
          to label %58 unwind label %122

58:                                               ; preds = %53
  %59 = getelementptr inbounds %class.Solver, %class.Solver* %6, i32 0, i32 39
  %60 = getelementptr inbounds %class.Solver, %class.Solver* %6, i32 0, i32 25
  invoke void @_ZN6Solver10VarOrderLtC2ERK3vecIdE(%"struct.Solver::VarOrderLt"* %5, %class.vec.2* dereferenceable(16) %60)
          to label %61 unwind label %126

61:                                               ; preds = %58
  invoke void @_ZN4HeapIN6Solver10VarOrderLtEEC2ERKS1_(%class.Heap* %59, %"struct.Solver::VarOrderLt"* dereferenceable(8) %5)
          to label %62 unwind label %126

62:                                               ; preds = %61
  %63 = getelementptr inbounds %class.Solver, %class.Solver* %6, i32 0, i32 40
  store double 0x4195D9C3F4000000, double* %63, align 8
  %64 = getelementptr inbounds %class.Solver, %class.Solver* %6, i32 0, i32 41
  store double 0.000000e+00, double* %64, align 8
  %65 = getelementptr inbounds %class.Solver, %class.Solver* %6, i32 0, i32 42
  store i8 1, i8* %65, align 8
  %66 = getelementptr inbounds %class.Solver, %class.Solver* %6, i32 0, i32 43
  invoke void @_ZN3vecIcEC2Ev(%class.vec.4* %66)
          to label %67 unwind label %130

67:                                               ; preds = %62
  %68 = getelementptr inbounds %class.Solver, %class.Solver* %6, i32 0, i32 44
  invoke void @_ZN3vecI3LitEC2Ev(%class.vec.0* %68)
          to label %69 unwind label %134

69:                                               ; preds = %67
  %70 = getelementptr inbounds %class.Solver, %class.Solver* %6, i32 0, i32 45
  invoke void @_ZN3vecI3LitEC2Ev(%class.vec.0* %70)
          to label %71 unwind label %138

71:                                               ; preds = %69
  %72 = getelementptr inbounds %class.Solver, %class.Solver* %6, i32 0, i32 46
  invoke void @_ZN3vecI3LitEC2Ev(%class.vec.0* %72)
          to label %73 unwind label %142

73:                                               ; preds = %71
  ret void

74:                                               ; preds = %1
  %75 = landingpad { i8*, i32 }
          cleanup
  %76 = extractvalue { i8*, i32 } %75, 0
  store i8* %76, i8** %3, align 8
  %77 = extractvalue { i8*, i32 } %75, 1
  store i32 %77, i32* %4, align 4
  br label %162

78:                                               ; preds = %9
  %79 = landingpad { i8*, i32 }
          cleanup
  %80 = extractvalue { i8*, i32 } %79, 0
  store i8* %80, i8** %3, align 8
  %81 = extractvalue { i8*, i32 } %79, 1
  store i32 %81, i32* %4, align 4
  br label %161

82:                                               ; preds = %31
  %83 = landingpad { i8*, i32 }
          cleanup
  %84 = extractvalue { i8*, i32 } %83, 0
  store i8* %84, i8** %3, align 8
  %85 = extractvalue { i8*, i32 } %83, 1
  store i32 %85, i32* %4, align 4
  br label %160

86:                                               ; preds = %33
  %87 = landingpad { i8*, i32 }
          cleanup
  %88 = extractvalue { i8*, i32 } %87, 0
  store i8* %88, i8** %3, align 8
  %89 = extractvalue { i8*, i32 } %87, 1
  store i32 %89, i32* %4, align 4
  br label %159

90:                                               ; preds = %36
  %91 = landingpad { i8*, i32 }
          cleanup
  %92 = extractvalue { i8*, i32 } %91, 0
  store i8* %92, i8** %3, align 8
  %93 = extractvalue { i8*, i32 } %91, 1
  store i32 %93, i32* %4, align 4
  br label %158

94:                                               ; preds = %39
  %95 = landingpad { i8*, i32 }
          cleanup
  %96 = extractvalue { i8*, i32 } %95, 0
  store i8* %96, i8** %3, align 8
  %97 = extractvalue { i8*, i32 } %95, 1
  store i32 %97, i32* %4, align 4
  br label %157

98:                                               ; preds = %41
  %99 = landingpad { i8*, i32 }
          cleanup
  %100 = extractvalue { i8*, i32 } %99, 0
  store i8* %100, i8** %3, align 8
  %101 = extractvalue { i8*, i32 } %99, 1
  store i32 %101, i32* %4, align 4
  br label %156

102:                                              ; preds = %43
  %103 = landingpad { i8*, i32 }
          cleanup
  %104 = extractvalue { i8*, i32 } %103, 0
  store i8* %104, i8** %3, align 8
  %105 = extractvalue { i8*, i32 } %103, 1
  store i32 %105, i32* %4, align 4
  br label %155

106:                                              ; preds = %45
  %107 = landingpad { i8*, i32 }
          cleanup
  %108 = extractvalue { i8*, i32 } %107, 0
  store i8* %108, i8** %3, align 8
  %109 = extractvalue { i8*, i32 } %107, 1
  store i32 %109, i32* %4, align 4
  br label %154

110:                                              ; preds = %47
  %111 = landingpad { i8*, i32 }
          cleanup
  %112 = extractvalue { i8*, i32 } %111, 0
  store i8* %112, i8** %3, align 8
  %113 = extractvalue { i8*, i32 } %111, 1
  store i32 %113, i32* %4, align 4
  br label %153

114:                                              ; preds = %49
  %115 = landingpad { i8*, i32 }
          cleanup
  %116 = extractvalue { i8*, i32 } %115, 0
  store i8* %116, i8** %3, align 8
  %117 = extractvalue { i8*, i32 } %115, 1
  store i32 %117, i32* %4, align 4
  br label %152

118:                                              ; preds = %51
  %119 = landingpad { i8*, i32 }
          cleanup
  %120 = extractvalue { i8*, i32 } %119, 0
  store i8* %120, i8** %3, align 8
  %121 = extractvalue { i8*, i32 } %119, 1
  store i32 %121, i32* %4, align 4
  br label %151

122:                                              ; preds = %53
  %123 = landingpad { i8*, i32 }
          cleanup
  %124 = extractvalue { i8*, i32 } %123, 0
  store i8* %124, i8** %3, align 8
  %125 = extractvalue { i8*, i32 } %123, 1
  store i32 %125, i32* %4, align 4
  br label %150

126:                                              ; preds = %61, %58
  %127 = landingpad { i8*, i32 }
          cleanup
  %128 = extractvalue { i8*, i32 } %127, 0
  store i8* %128, i8** %3, align 8
  %129 = extractvalue { i8*, i32 } %127, 1
  store i32 %129, i32* %4, align 4
  br label %149

130:                                              ; preds = %62
  %131 = landingpad { i8*, i32 }
          cleanup
  %132 = extractvalue { i8*, i32 } %131, 0
  store i8* %132, i8** %3, align 8
  %133 = extractvalue { i8*, i32 } %131, 1
  store i32 %133, i32* %4, align 4
  br label %148

134:                                              ; preds = %67
  %135 = landingpad { i8*, i32 }
          cleanup
  %136 = extractvalue { i8*, i32 } %135, 0
  store i8* %136, i8** %3, align 8
  %137 = extractvalue { i8*, i32 } %135, 1
  store i32 %137, i32* %4, align 4
  br label %147

138:                                              ; preds = %69
  %139 = landingpad { i8*, i32 }
          cleanup
  %140 = extractvalue { i8*, i32 } %139, 0
  store i8* %140, i8** %3, align 8
  %141 = extractvalue { i8*, i32 } %139, 1
  store i32 %141, i32* %4, align 4
  br label %146

142:                                              ; preds = %71
  %143 = landingpad { i8*, i32 }
          cleanup
  %144 = extractvalue { i8*, i32 } %143, 0
  store i8* %144, i8** %3, align 8
  %145 = extractvalue { i8*, i32 } %143, 1
  store i32 %145, i32* %4, align 4
  call void @_ZN3vecI3LitED2Ev(%class.vec.0* %70) #12
  br label %146

146:                                              ; preds = %142, %138
  call void @_ZN3vecI3LitED2Ev(%class.vec.0* %68) #12
  br label %147

147:                                              ; preds = %146, %134
  call void @_ZN3vecIcED2Ev(%class.vec.4* %66) #12
  br label %148

148:                                              ; preds = %147, %130
  call void @_ZN4HeapIN6Solver10VarOrderLtEED2Ev(%class.Heap* %59) #12
  br label %149

149:                                              ; preds = %148, %126
  call void @_ZN3vecI3LitED2Ev(%class.vec.0* %57) #12
  br label %150

150:                                              ; preds = %149, %122
  call void @_ZN3vecIiED2Ev(%class.vec.5* %52) #12
  br label %151

151:                                              ; preds = %150, %118
  call void @_ZN3vecIP6ClauseED2Ev(%class.vec.1* %50) #12
  br label %152

152:                                              ; preds = %151, %114
  call void @_ZN3vecIiED2Ev(%class.vec.5* %48) #12
  br label %153

153:                                              ; preds = %152, %110
  call void @_ZN3vecI3LitED2Ev(%class.vec.0* %46) #12
  br label %154

154:                                              ; preds = %153, %106
  call void @_ZN3vecIcED2Ev(%class.vec.4* %44) #12
  br label %155

155:                                              ; preds = %154, %102
  call void @_ZN3vecIcED2Ev(%class.vec.4* %42) #12
  br label %156

156:                                              ; preds = %155, %98
  call void @_ZN3vecIcED2Ev(%class.vec.4* %40) #12
  br label %157

157:                                              ; preds = %156, %94
  call void @_ZN3vecIS_IP6ClauseEED2Ev(%class.vec.3* %38) #12
  br label %158

158:                                              ; preds = %157, %90
  call void @_ZN3vecIdED2Ev(%class.vec.2* %35) #12
  br label %159

159:                                              ; preds = %158, %86
  call void @_ZN3vecIP6ClauseED2Ev(%class.vec.1* %32) #12
  br label %160

160:                                              ; preds = %159, %82
  call void @_ZN3vecIP6ClauseED2Ev(%class.vec.1* %30) #12
  br label %161

161:                                              ; preds = %160, %78
  call void @_ZN3vecI3LitED2Ev(%class.vec.0* %8) #12
  br label %162

162:                                              ; preds = %161, %74
  call void @_ZN3vecI5lboolED2Ev(%class.vec* %7) #12
  br label %163

163:                                              ; preds = %162
  %164 = load i8*, i8** %3, align 8
  %165 = load i32, i32* %4, align 4
  %166 = insertvalue { i8*, i32 } undef, i8* %164, 0
  %167 = insertvalue { i8*, i32 } %166, i32 %165, 1
  resume { i8*, i32 } %167
}

; Function Attrs: noinline nounwind uwtable
define linkonce_odr dso_local void @_ZN3vecI5lboolEC2Ev(%class.vec* %0) unnamed_addr #1 comdat align 2 {
  %2 = alloca %class.vec*, align 8
  store %class.vec* %0, %class.vec** %2, align 8
  %3 = load %class.vec*, %class.vec** %2, align 8
  %4 = getelementptr inbounds %class.vec, %class.vec* %3, i32 0, i32 0
  store %class.lbool* null, %class.lbool** %4, align 8
  %5 = getelementptr inbounds %class.vec, %class.vec* %3, i32 0, i32 1
  store i32 0, i32* %5, align 8
  %6 = getelementptr inbounds %class.vec, %class.vec* %3, i32 0, i32 2
  store i32 0, i32* %6, align 4
  ret void
}

; Function Attrs: noinline nounwind uwtable
define linkonce_odr dso_local void @_ZN3vecIP6ClauseEC2Ev(%class.vec.1* %0) unnamed_addr #1 comdat align 2 {
  %2 = alloca %class.vec.1*, align 8
  store %class.vec.1* %0, %class.vec.1** %2, align 8
  %3 = load %class.vec.1*, %class.vec.1** %2, align 8
  %4 = getelementptr inbounds %class.vec.1, %class.vec.1* %3, i32 0, i32 0
  store %class.Clause** null, %class.Clause*** %4, align 8
  %5 = getelementptr inbounds %class.vec.1, %class.vec.1* %3, i32 0, i32 1
  store i32 0, i32* %5, align 8
  %6 = getelementptr inbounds %class.vec.1, %class.vec.1* %3, i32 0, i32 2
  store i32 0, i32* %6, align 4
  ret void
}

; Function Attrs: noinline nounwind uwtable
define linkonce_odr dso_local void @_ZN3vecIdEC2Ev(%class.vec.2* %0) unnamed_addr #1 comdat align 2 {
  %2 = alloca %class.vec.2*, align 8
  store %class.vec.2* %0, %class.vec.2** %2, align 8
  %3 = load %class.vec.2*, %class.vec.2** %2, align 8
  %4 = getelementptr inbounds %class.vec.2, %class.vec.2* %3, i32 0, i32 0
  store double* null, double** %4, align 8
  %5 = getelementptr inbounds %class.vec.2, %class.vec.2* %3, i32 0, i32 1
  store i32 0, i32* %5, align 8
  %6 = getelementptr inbounds %class.vec.2, %class.vec.2* %3, i32 0, i32 2
  store i32 0, i32* %6, align 4
  ret void
}

; Function Attrs: noinline nounwind uwtable
define linkonce_odr dso_local void @_ZN3vecIS_IP6ClauseEEC2Ev(%class.vec.3* %0) unnamed_addr #1 comdat align 2 {
  %2 = alloca %class.vec.3*, align 8
  store %class.vec.3* %0, %class.vec.3** %2, align 8
  %3 = load %class.vec.3*, %class.vec.3** %2, align 8
  %4 = getelementptr inbounds %class.vec.3, %class.vec.3* %3, i32 0, i32 0
  store %class.vec.1* null, %class.vec.1** %4, align 8
  %5 = getelementptr inbounds %class.vec.3, %class.vec.3* %3, i32 0, i32 1
  store i32 0, i32* %5, align 8
  %6 = getelementptr inbounds %class.vec.3, %class.vec.3* %3, i32 0, i32 2
  store i32 0, i32* %6, align 4
  ret void
}

; Function Attrs: noinline nounwind uwtable
define linkonce_odr dso_local void @_ZN3vecIcEC2Ev(%class.vec.4* %0) unnamed_addr #1 comdat align 2 {
  %2 = alloca %class.vec.4*, align 8
  store %class.vec.4* %0, %class.vec.4** %2, align 8
  %3 = load %class.vec.4*, %class.vec.4** %2, align 8
  %4 = getelementptr inbounds %class.vec.4, %class.vec.4* %3, i32 0, i32 0
  store i8* null, i8** %4, align 8
  %5 = getelementptr inbounds %class.vec.4, %class.vec.4* %3, i32 0, i32 1
  store i32 0, i32* %5, align 8
  %6 = getelementptr inbounds %class.vec.4, %class.vec.4* %3, i32 0, i32 2
  store i32 0, i32* %6, align 4
  ret void
}

; Function Attrs: noinline nounwind uwtable
define linkonce_odr dso_local void @_ZN3vecIiEC2Ev(%class.vec.5* %0) unnamed_addr #1 comdat align 2 {
  %2 = alloca %class.vec.5*, align 8
  store %class.vec.5* %0, %class.vec.5** %2, align 8
  %3 = load %class.vec.5*, %class.vec.5** %2, align 8
  %4 = getelementptr inbounds %class.vec.5, %class.vec.5* %3, i32 0, i32 0
  store i32* null, i32** %4, align 8
  %5 = getelementptr inbounds %class.vec.5, %class.vec.5* %3, i32 0, i32 1
  store i32 0, i32* %5, align 8
  %6 = getelementptr inbounds %class.vec.5, %class.vec.5* %3, i32 0, i32 2
  store i32 0, i32* %6, align 4
  ret void
}

; Function Attrs: noinline nounwind uwtable
define linkonce_odr dso_local void @_ZN6Solver10VarOrderLtC2ERK3vecIdE(%"struct.Solver::VarOrderLt"* %0, %class.vec.2* dereferenceable(16) %1) unnamed_addr #1 comdat align 2 {
  %3 = alloca %"struct.Solver::VarOrderLt"*, align 8
  %4 = alloca %class.vec.2*, align 8
  store %"struct.Solver::VarOrderLt"* %0, %"struct.Solver::VarOrderLt"** %3, align 8
  store %class.vec.2* %1, %class.vec.2** %4, align 8
  %5 = load %"struct.Solver::VarOrderLt"*, %"struct.Solver::VarOrderLt"** %3, align 8
  %6 = getelementptr inbounds %"struct.Solver::VarOrderLt", %"struct.Solver::VarOrderLt"* %5, i32 0, i32 0
  %7 = load %class.vec.2*, %class.vec.2** %4, align 8
  store %class.vec.2* %7, %class.vec.2** %6, align 8
  ret void
}

; Function Attrs: noinline uwtable
define linkonce_odr dso_local void @_ZN4HeapIN6Solver10VarOrderLtEEC2ERKS1_(%class.Heap* %0, %"struct.Solver::VarOrderLt"* dereferenceable(8) %1) unnamed_addr #0 comdat align 2 personality i8* bitcast (i32 (...)* @__gxx_personality_v0 to i8*) {
  %3 = alloca %class.Heap*, align 8
  %4 = alloca %"struct.Solver::VarOrderLt"*, align 8
  %5 = alloca i8*
  %6 = alloca i32
  store %class.Heap* %0, %class.Heap** %3, align 8
  store %"struct.Solver::VarOrderLt"* %1, %"struct.Solver::VarOrderLt"** %4, align 8
  %7 = load %class.Heap*, %class.Heap** %3, align 8
  %8 = getelementptr inbounds %class.Heap, %class.Heap* %7, i32 0, i32 0
  %9 = load %"struct.Solver::VarOrderLt"*, %"struct.Solver::VarOrderLt"** %4, align 8
  %10 = bitcast %"struct.Solver::VarOrderLt"* %8 to i8*
  %11 = bitcast %"struct.Solver::VarOrderLt"* %9 to i8*
  call void @llvm.memcpy.p0i8.p0i8.i64(i8* align 8 %10, i8* align 8 %11, i64 8, i1 false)
  %12 = getelementptr inbounds %class.Heap, %class.Heap* %7, i32 0, i32 1
  call void @_ZN3vecIiEC2Ev(%class.vec.5* %12)
  %13 = getelementptr inbounds %class.Heap, %class.Heap* %7, i32 0, i32 2
  invoke void @_ZN3vecIiEC2Ev(%class.vec.5* %13)
          to label %14 unwind label %15

14:                                               ; preds = %2
  ret void

15:                                               ; preds = %2
  %16 = landingpad { i8*, i32 }
          cleanup
  %17 = extractvalue { i8*, i32 } %16, 0
  store i8* %17, i8** %5, align 8
  %18 = extractvalue { i8*, i32 } %16, 1
  store i32 %18, i32* %6, align 4
  call void @_ZN3vecIiED2Ev(%class.vec.5* %12) #12
  br label %19

19:                                               ; preds = %15
  %20 = load i8*, i8** %5, align 8
  %21 = load i32, i32* %6, align 4
  %22 = insertvalue { i8*, i32 } undef, i8* %20, 0
  %23 = insertvalue { i8*, i32 } %22, i32 %21, 1
  resume { i8*, i32 } %23
}

; Function Attrs: noinline nounwind uwtable
define linkonce_odr dso_local void @_ZN3vecIcED2Ev(%class.vec.4* %0) unnamed_addr #1 comdat align 2 personality i8* bitcast (i32 (...)* @__gxx_personality_v0 to i8*) {
  %2 = alloca %class.vec.4*, align 8
  store %class.vec.4* %0, %class.vec.4** %2, align 8
  %3 = load %class.vec.4*, %class.vec.4** %2, align 8
  invoke void @_ZN3vecIcE5clearEb(%class.vec.4* %3, i1 zeroext true)
          to label %4 unwind label %5

4:                                                ; preds = %1
  ret void

5:                                                ; preds = %1
  %6 = landingpad { i8*, i32 }
          catch i8* null
  %7 = extractvalue { i8*, i32 } %6, 0
  call void @__clang_call_terminate(i8* %7) #15
  unreachable
}

; Function Attrs: noinline nounwind uwtable
define linkonce_odr dso_local void @_ZN4HeapIN6Solver10VarOrderLtEED2Ev(%class.Heap* %0) unnamed_addr #1 comdat align 2 {
  %2 = alloca %class.Heap*, align 8
  store %class.Heap* %0, %class.Heap** %2, align 8
  %3 = load %class.Heap*, %class.Heap** %2, align 8
  %4 = getelementptr inbounds %class.Heap, %class.Heap* %3, i32 0, i32 2
  call void @_ZN3vecIiED2Ev(%class.vec.5* %4) #12
  %5 = getelementptr inbounds %class.Heap, %class.Heap* %3, i32 0, i32 1
  call void @_ZN3vecIiED2Ev(%class.vec.5* %5) #12
  ret void
}

; Function Attrs: noinline nounwind uwtable
define linkonce_odr dso_local void @_ZN3vecIiED2Ev(%class.vec.5* %0) unnamed_addr #1 comdat align 2 personality i8* bitcast (i32 (...)* @__gxx_personality_v0 to i8*) {
  %2 = alloca %class.vec.5*, align 8
  store %class.vec.5* %0, %class.vec.5** %2, align 8
  %3 = load %class.vec.5*, %class.vec.5** %2, align 8
  invoke void @_ZN3vecIiE5clearEb(%class.vec.5* %3, i1 zeroext true)
          to label %4 unwind label %5

4:                                                ; preds = %1
  ret void

5:                                                ; preds = %1
  %6 = landingpad { i8*, i32 }
          catch i8* null
  %7 = extractvalue { i8*, i32 } %6, 0
  call void @__clang_call_terminate(i8* %7) #15
  unreachable
}

; Function Attrs: noinline nounwind uwtable
define linkonce_odr dso_local void @_ZN3vecIP6ClauseED2Ev(%class.vec.1* %0) unnamed_addr #1 comdat align 2 personality i8* bitcast (i32 (...)* @__gxx_personality_v0 to i8*) {
  %2 = alloca %class.vec.1*, align 8
  store %class.vec.1* %0, %class.vec.1** %2, align 8
  %3 = load %class.vec.1*, %class.vec.1** %2, align 8
  invoke void @_ZN3vecIP6ClauseE5clearEb(%class.vec.1* %3, i1 zeroext true)
          to label %4 unwind label %5

4:                                                ; preds = %1
  ret void

5:                                                ; preds = %1
  %6 = landingpad { i8*, i32 }
          catch i8* null
  %7 = extractvalue { i8*, i32 } %6, 0
  call void @__clang_call_terminate(i8* %7) #15
  unreachable
}

; Function Attrs: noinline nounwind uwtable
define linkonce_odr dso_local void @_ZN3vecIS_IP6ClauseEED2Ev(%class.vec.3* %0) unnamed_addr #1 comdat align 2 personality i8* bitcast (i32 (...)* @__gxx_personality_v0 to i8*) {
  %2 = alloca %class.vec.3*, align 8
  store %class.vec.3* %0, %class.vec.3** %2, align 8
  %3 = load %class.vec.3*, %class.vec.3** %2, align 8
  invoke void @_ZN3vecIS_IP6ClauseEE5clearEb(%class.vec.3* %3, i1 zeroext true)
          to label %4 unwind label %5

4:                                                ; preds = %1
  ret void

5:                                                ; preds = %1
  %6 = landingpad { i8*, i32 }
          catch i8* null
  %7 = extractvalue { i8*, i32 } %6, 0
  call void @__clang_call_terminate(i8* %7) #15
  unreachable
}

; Function Attrs: noinline nounwind uwtable
define linkonce_odr dso_local void @_ZN3vecIdED2Ev(%class.vec.2* %0) unnamed_addr #1 comdat align 2 personality i8* bitcast (i32 (...)* @__gxx_personality_v0 to i8*) {
  %2 = alloca %class.vec.2*, align 8
  store %class.vec.2* %0, %class.vec.2** %2, align 8
  %3 = load %class.vec.2*, %class.vec.2** %2, align 8
  invoke void @_ZN3vecIdE5clearEb(%class.vec.2* %3, i1 zeroext true)
          to label %4 unwind label %5

4:                                                ; preds = %1
  ret void

5:                                                ; preds = %1
  %6 = landingpad { i8*, i32 }
          catch i8* null
  %7 = extractvalue { i8*, i32 } %6, 0
  call void @__clang_call_terminate(i8* %7) #15
  unreachable
}

; Function Attrs: noinline nounwind uwtable
define linkonce_odr dso_local void @_ZN3vecI5lboolED2Ev(%class.vec* %0) unnamed_addr #1 comdat align 2 personality i8* bitcast (i32 (...)* @__gxx_personality_v0 to i8*) {
  %2 = alloca %class.vec*, align 8
  store %class.vec* %0, %class.vec** %2, align 8
  %3 = load %class.vec*, %class.vec** %2, align 8
  invoke void @_ZN3vecI5lboolE5clearEb(%class.vec* %3, i1 zeroext true)
          to label %4 unwind label %5

4:                                                ; preds = %1
  ret void

5:                                                ; preds = %1
  %6 = landingpad { i8*, i32 }
          catch i8* null
  %7 = extractvalue { i8*, i32 } %6, 0
  call void @__clang_call_terminate(i8* %7) #15
  unreachable
}

; Function Attrs: noinline nounwind uwtable
define linkonce_odr dso_local void @_ZN3vecI5lboolE5clearEb(%class.vec* %0, i1 zeroext %1) #1 comdat align 2 {
  %3 = alloca %class.vec*, align 8
  %4 = alloca i8, align 1
  %5 = alloca i32, align 4
  store %class.vec* %0, %class.vec** %3, align 8
  %6 = zext i1 %1 to i8
  store i8 %6, i8* %4, align 1
  %7 = load %class.vec*, %class.vec** %3, align 8
  %8 = getelementptr inbounds %class.vec, %class.vec* %7, i32 0, i32 0
  %9 = load %class.lbool*, %class.lbool** %8, align 8
  %10 = icmp ne %class.lbool* %9, null
  br i1 %10, label %11, label %37

11:                                               ; preds = %2
  store i32 0, i32* %5, align 4
  br label %12

12:                                               ; preds = %23, %11
  %13 = load i32, i32* %5, align 4
  %14 = getelementptr inbounds %class.vec, %class.vec* %7, i32 0, i32 1
  %15 = load i32, i32* %14, align 8
  %16 = icmp slt i32 %13, %15
  br i1 %16, label %17, label %26

17:                                               ; preds = %12
  %18 = getelementptr inbounds %class.vec, %class.vec* %7, i32 0, i32 0
  %19 = load %class.lbool*, %class.lbool** %18, align 8
  %20 = load i32, i32* %5, align 4
  %21 = sext i32 %20 to i64
  %22 = getelementptr inbounds %class.lbool, %class.lbool* %19, i64 %21
  br label %23

23:                                               ; preds = %17
  %24 = load i32, i32* %5, align 4
  %25 = add nsw i32 %24, 1
  store i32 %25, i32* %5, align 4
  br label %12

26:                                               ; preds = %12
  %27 = getelementptr inbounds %class.vec, %class.vec* %7, i32 0, i32 1
  store i32 0, i32* %27, align 8
  %28 = load i8, i8* %4, align 1
  %29 = trunc i8 %28 to i1
  br i1 %29, label %30, label %36

30:                                               ; preds = %26
  %31 = getelementptr inbounds %class.vec, %class.vec* %7, i32 0, i32 0
  %32 = load %class.lbool*, %class.lbool** %31, align 8
  %33 = bitcast %class.lbool* %32 to i8*
  call void @free(i8* %33) #12
  %34 = getelementptr inbounds %class.vec, %class.vec* %7, i32 0, i32 0
  store %class.lbool* null, %class.lbool** %34, align 8
  %35 = getelementptr inbounds %class.vec, %class.vec* %7, i32 0, i32 2
  store i32 0, i32* %35, align 4
  br label %36

36:                                               ; preds = %30, %26
  br label %37

37:                                               ; preds = %36, %2
  ret void
}

; Function Attrs: noinline nounwind uwtable
define linkonce_odr dso_local void @_ZN3vecIdE5clearEb(%class.vec.2* %0, i1 zeroext %1) #1 comdat align 2 {
  %3 = alloca %class.vec.2*, align 8
  %4 = alloca i8, align 1
  %5 = alloca i32, align 4
  store %class.vec.2* %0, %class.vec.2** %3, align 8
  %6 = zext i1 %1 to i8
  store i8 %6, i8* %4, align 1
  %7 = load %class.vec.2*, %class.vec.2** %3, align 8
  %8 = getelementptr inbounds %class.vec.2, %class.vec.2* %7, i32 0, i32 0
  %9 = load double*, double** %8, align 8
  %10 = icmp ne double* %9, null
  br i1 %10, label %11, label %37

11:                                               ; preds = %2
  store i32 0, i32* %5, align 4
  br label %12

12:                                               ; preds = %23, %11
  %13 = load i32, i32* %5, align 4
  %14 = getelementptr inbounds %class.vec.2, %class.vec.2* %7, i32 0, i32 1
  %15 = load i32, i32* %14, align 8
  %16 = icmp slt i32 %13, %15
  br i1 %16, label %17, label %26

17:                                               ; preds = %12
  %18 = getelementptr inbounds %class.vec.2, %class.vec.2* %7, i32 0, i32 0
  %19 = load double*, double** %18, align 8
  %20 = load i32, i32* %5, align 4
  %21 = sext i32 %20 to i64
  %22 = getelementptr inbounds double, double* %19, i64 %21
  br label %23

23:                                               ; preds = %17
  %24 = load i32, i32* %5, align 4
  %25 = add nsw i32 %24, 1
  store i32 %25, i32* %5, align 4
  br label %12

26:                                               ; preds = %12
  %27 = getelementptr inbounds %class.vec.2, %class.vec.2* %7, i32 0, i32 1
  store i32 0, i32* %27, align 8
  %28 = load i8, i8* %4, align 1
  %29 = trunc i8 %28 to i1
  br i1 %29, label %30, label %36

30:                                               ; preds = %26
  %31 = getelementptr inbounds %class.vec.2, %class.vec.2* %7, i32 0, i32 0
  %32 = load double*, double** %31, align 8
  %33 = bitcast double* %32 to i8*
  call void @free(i8* %33) #12
  %34 = getelementptr inbounds %class.vec.2, %class.vec.2* %7, i32 0, i32 0
  store double* null, double** %34, align 8
  %35 = getelementptr inbounds %class.vec.2, %class.vec.2* %7, i32 0, i32 2
  store i32 0, i32* %35, align 4
  br label %36

36:                                               ; preds = %30, %26
  br label %37

37:                                               ; preds = %36, %2
  ret void
}

; Function Attrs: noinline nounwind uwtable
define linkonce_odr dso_local void @_ZN3vecIS_IP6ClauseEE5clearEb(%class.vec.3* %0, i1 zeroext %1) #1 comdat align 2 {
  %3 = alloca %class.vec.3*, align 8
  %4 = alloca i8, align 1
  %5 = alloca i32, align 4
  store %class.vec.3* %0, %class.vec.3** %3, align 8
  %6 = zext i1 %1 to i8
  store i8 %6, i8* %4, align 1
  %7 = load %class.vec.3*, %class.vec.3** %3, align 8
  %8 = getelementptr inbounds %class.vec.3, %class.vec.3* %7, i32 0, i32 0
  %9 = load %class.vec.1*, %class.vec.1** %8, align 8
  %10 = icmp ne %class.vec.1* %9, null
  br i1 %10, label %11, label %37

11:                                               ; preds = %2
  store i32 0, i32* %5, align 4
  br label %12

12:                                               ; preds = %23, %11
  %13 = load i32, i32* %5, align 4
  %14 = getelementptr inbounds %class.vec.3, %class.vec.3* %7, i32 0, i32 1
  %15 = load i32, i32* %14, align 8
  %16 = icmp slt i32 %13, %15
  br i1 %16, label %17, label %26

17:                                               ; preds = %12
  %18 = getelementptr inbounds %class.vec.3, %class.vec.3* %7, i32 0, i32 0
  %19 = load %class.vec.1*, %class.vec.1** %18, align 8
  %20 = load i32, i32* %5, align 4
  %21 = sext i32 %20 to i64
  %22 = getelementptr inbounds %class.vec.1, %class.vec.1* %19, i64 %21
  call void @_ZN3vecIP6ClauseED2Ev(%class.vec.1* %22) #12
  br label %23

23:                                               ; preds = %17
  %24 = load i32, i32* %5, align 4
  %25 = add nsw i32 %24, 1
  store i32 %25, i32* %5, align 4
  br label %12

26:                                               ; preds = %12
  %27 = getelementptr inbounds %class.vec.3, %class.vec.3* %7, i32 0, i32 1
  store i32 0, i32* %27, align 8
  %28 = load i8, i8* %4, align 1
  %29 = trunc i8 %28 to i1
  br i1 %29, label %30, label %36

30:                                               ; preds = %26
  %31 = getelementptr inbounds %class.vec.3, %class.vec.3* %7, i32 0, i32 0
  %32 = load %class.vec.1*, %class.vec.1** %31, align 8
  %33 = bitcast %class.vec.1* %32 to i8*
  call void @free(i8* %33) #12
  %34 = getelementptr inbounds %class.vec.3, %class.vec.3* %7, i32 0, i32 0
  store %class.vec.1* null, %class.vec.1** %34, align 8
  %35 = getelementptr inbounds %class.vec.3, %class.vec.3* %7, i32 0, i32 2
  store i32 0, i32* %35, align 4
  br label %36

36:                                               ; preds = %30, %26
  br label %37

37:                                               ; preds = %36, %2
  ret void
}

; Function Attrs: noinline nounwind uwtable
define linkonce_odr dso_local void @_ZN3vecIP6ClauseE5clearEb(%class.vec.1* %0, i1 zeroext %1) #1 comdat align 2 {
  %3 = alloca %class.vec.1*, align 8
  %4 = alloca i8, align 1
  %5 = alloca i32, align 4
  store %class.vec.1* %0, %class.vec.1** %3, align 8
  %6 = zext i1 %1 to i8
  store i8 %6, i8* %4, align 1
  %7 = load %class.vec.1*, %class.vec.1** %3, align 8
  %8 = getelementptr inbounds %class.vec.1, %class.vec.1* %7, i32 0, i32 0
  %9 = load %class.Clause**, %class.Clause*** %8, align 8
  %10 = icmp ne %class.Clause** %9, null
  br i1 %10, label %11, label %37

11:                                               ; preds = %2
  store i32 0, i32* %5, align 4
  br label %12

12:                                               ; preds = %23, %11
  %13 = load i32, i32* %5, align 4
  %14 = getelementptr inbounds %class.vec.1, %class.vec.1* %7, i32 0, i32 1
  %15 = load i32, i32* %14, align 8
  %16 = icmp slt i32 %13, %15
  br i1 %16, label %17, label %26

17:                                               ; preds = %12
  %18 = getelementptr inbounds %class.vec.1, %class.vec.1* %7, i32 0, i32 0
  %19 = load %class.Clause**, %class.Clause*** %18, align 8
  %20 = load i32, i32* %5, align 4
  %21 = sext i32 %20 to i64
  %22 = getelementptr inbounds %class.Clause*, %class.Clause** %19, i64 %21
  br label %23

23:                                               ; preds = %17
  %24 = load i32, i32* %5, align 4
  %25 = add nsw i32 %24, 1
  store i32 %25, i32* %5, align 4
  br label %12

26:                                               ; preds = %12
  %27 = getelementptr inbounds %class.vec.1, %class.vec.1* %7, i32 0, i32 1
  store i32 0, i32* %27, align 8
  %28 = load i8, i8* %4, align 1
  %29 = trunc i8 %28 to i1
  br i1 %29, label %30, label %36

30:                                               ; preds = %26
  %31 = getelementptr inbounds %class.vec.1, %class.vec.1* %7, i32 0, i32 0
  %32 = load %class.Clause**, %class.Clause*** %31, align 8
  %33 = bitcast %class.Clause** %32 to i8*
  call void @free(i8* %33) #12
  %34 = getelementptr inbounds %class.vec.1, %class.vec.1* %7, i32 0, i32 0
  store %class.Clause** null, %class.Clause*** %34, align 8
  %35 = getelementptr inbounds %class.vec.1, %class.vec.1* %7, i32 0, i32 2
  store i32 0, i32* %35, align 4
  br label %36

36:                                               ; preds = %30, %26
  br label %37

37:                                               ; preds = %36, %2
  ret void
}

; Function Attrs: noinline nounwind uwtable
define linkonce_odr dso_local void @_ZN3vecIiE5clearEb(%class.vec.5* %0, i1 zeroext %1) #1 comdat align 2 {
  %3 = alloca %class.vec.5*, align 8
  %4 = alloca i8, align 1
  %5 = alloca i32, align 4
  store %class.vec.5* %0, %class.vec.5** %3, align 8
  %6 = zext i1 %1 to i8
  store i8 %6, i8* %4, align 1
  %7 = load %class.vec.5*, %class.vec.5** %3, align 8
  %8 = getelementptr inbounds %class.vec.5, %class.vec.5* %7, i32 0, i32 0
  %9 = load i32*, i32** %8, align 8
  %10 = icmp ne i32* %9, null
  br i1 %10, label %11, label %37

11:                                               ; preds = %2
  store i32 0, i32* %5, align 4
  br label %12

12:                                               ; preds = %23, %11
  %13 = load i32, i32* %5, align 4
  %14 = getelementptr inbounds %class.vec.5, %class.vec.5* %7, i32 0, i32 1
  %15 = load i32, i32* %14, align 8
  %16 = icmp slt i32 %13, %15
  br i1 %16, label %17, label %26

17:                                               ; preds = %12
  %18 = getelementptr inbounds %class.vec.5, %class.vec.5* %7, i32 0, i32 0
  %19 = load i32*, i32** %18, align 8
  %20 = load i32, i32* %5, align 4
  %21 = sext i32 %20 to i64
  %22 = getelementptr inbounds i32, i32* %19, i64 %21
  br label %23

23:                                               ; preds = %17
  %24 = load i32, i32* %5, align 4
  %25 = add nsw i32 %24, 1
  store i32 %25, i32* %5, align 4
  br label %12

26:                                               ; preds = %12
  %27 = getelementptr inbounds %class.vec.5, %class.vec.5* %7, i32 0, i32 1
  store i32 0, i32* %27, align 8
  %28 = load i8, i8* %4, align 1
  %29 = trunc i8 %28 to i1
  br i1 %29, label %30, label %36

30:                                               ; preds = %26
  %31 = getelementptr inbounds %class.vec.5, %class.vec.5* %7, i32 0, i32 0
  %32 = load i32*, i32** %31, align 8
  %33 = bitcast i32* %32 to i8*
  call void @free(i8* %33) #12
  %34 = getelementptr inbounds %class.vec.5, %class.vec.5* %7, i32 0, i32 0
  store i32* null, i32** %34, align 8
  %35 = getelementptr inbounds %class.vec.5, %class.vec.5* %7, i32 0, i32 2
  store i32 0, i32* %35, align 4
  br label %36

36:                                               ; preds = %30, %26
  br label %37

37:                                               ; preds = %36, %2
  ret void
}

; Function Attrs: noinline nounwind uwtable
define linkonce_odr dso_local void @_ZN3vecIcE5clearEb(%class.vec.4* %0, i1 zeroext %1) #1 comdat align 2 {
  %3 = alloca %class.vec.4*, align 8
  %4 = alloca i8, align 1
  %5 = alloca i32, align 4
  store %class.vec.4* %0, %class.vec.4** %3, align 8
  %6 = zext i1 %1 to i8
  store i8 %6, i8* %4, align 1
  %7 = load %class.vec.4*, %class.vec.4** %3, align 8
  %8 = getelementptr inbounds %class.vec.4, %class.vec.4* %7, i32 0, i32 0
  %9 = load i8*, i8** %8, align 8
  %10 = icmp ne i8* %9, null
  br i1 %10, label %11, label %36

11:                                               ; preds = %2
  store i32 0, i32* %5, align 4
  br label %12

12:                                               ; preds = %23, %11
  %13 = load i32, i32* %5, align 4
  %14 = getelementptr inbounds %class.vec.4, %class.vec.4* %7, i32 0, i32 1
  %15 = load i32, i32* %14, align 8
  %16 = icmp slt i32 %13, %15
  br i1 %16, label %17, label %26

17:                                               ; preds = %12
  %18 = getelementptr inbounds %class.vec.4, %class.vec.4* %7, i32 0, i32 0
  %19 = load i8*, i8** %18, align 8
  %20 = load i32, i32* %5, align 4
  %21 = sext i32 %20 to i64
  %22 = getelementptr inbounds i8, i8* %19, i64 %21
  br label %23

23:                                               ; preds = %17
  %24 = load i32, i32* %5, align 4
  %25 = add nsw i32 %24, 1
  store i32 %25, i32* %5, align 4
  br label %12

26:                                               ; preds = %12
  %27 = getelementptr inbounds %class.vec.4, %class.vec.4* %7, i32 0, i32 1
  store i32 0, i32* %27, align 8
  %28 = load i8, i8* %4, align 1
  %29 = trunc i8 %28 to i1
  br i1 %29, label %30, label %35

30:                                               ; preds = %26
  %31 = getelementptr inbounds %class.vec.4, %class.vec.4* %7, i32 0, i32 0
  %32 = load i8*, i8** %31, align 8
  call void @free(i8* %32) #12
  %33 = getelementptr inbounds %class.vec.4, %class.vec.4* %7, i32 0, i32 0
  store i8* null, i8** %33, align 8
  %34 = getelementptr inbounds %class.vec.4, %class.vec.4* %7, i32 0, i32 2
  store i32 0, i32* %34, align 4
  br label %35

35:                                               ; preds = %30, %26
  br label %36

36:                                               ; preds = %35, %2
  ret void
}

; Function Attrs: noinline nounwind uwtable
define dso_local void @_ZN6SolverD2Ev(%class.Solver* %0) unnamed_addr #1 align 2 personality i8* bitcast (i32 (...)* @__gxx_personality_v0 to i8*) {
  %2 = alloca %class.Solver*, align 8
  %3 = alloca i32, align 4
  %4 = alloca i8*
  %5 = alloca i32
  %6 = alloca i32, align 4
  store %class.Solver* %0, %class.Solver** %2, align 8
  %7 = load %class.Solver*, %class.Solver** %2, align 8
  store i32 0, i32* %3, align 4
  br label %8

8:                                                ; preds = %21, %1
  %9 = load i32, i32* %3, align 4
  %10 = getelementptr inbounds %class.Solver, %class.Solver* %7, i32 0, i32 23
  %11 = invoke i32 @_ZNK3vecIP6ClauseE4sizeEv(%class.vec.1* %10)
          to label %12 unwind label %24

12:                                               ; preds = %8
  %13 = icmp slt i32 %9, %11
  br i1 %13, label %14, label %47

14:                                               ; preds = %12
  %15 = getelementptr inbounds %class.Solver, %class.Solver* %7, i32 0, i32 23
  %16 = load i32, i32* %3, align 4
  %17 = invoke dereferenceable(8) %class.Clause** @_ZN3vecIP6ClauseEixEi(%class.vec.1* %15, i32 %16)
          to label %18 unwind label %24

18:                                               ; preds = %14
  %19 = load %class.Clause*, %class.Clause** %17, align 8
  %20 = bitcast %class.Clause* %19 to i8*
  call void @free(i8* %20) #12
  br label %21

21:                                               ; preds = %18
  %22 = load i32, i32* %3, align 4
  %23 = add nsw i32 %22, 1
  store i32 %23, i32* %3, align 4
  br label %8

24:                                               ; preds = %54, %48, %14, %8
  %25 = landingpad { i8*, i32 }
          catch i8* null
  %26 = extractvalue { i8*, i32 } %25, 0
  store i8* %26, i8** %4, align 8
  %27 = extractvalue { i8*, i32 } %25, 1
  store i32 %27, i32* %5, align 4
  %28 = getelementptr inbounds %class.Solver, %class.Solver* %7, i32 0, i32 46
  call void @_ZN3vecI3LitED2Ev(%class.vec.0* %28) #12
  %29 = getelementptr inbounds %class.Solver, %class.Solver* %7, i32 0, i32 45
  call void @_ZN3vecI3LitED2Ev(%class.vec.0* %29) #12
  %30 = getelementptr inbounds %class.Solver, %class.Solver* %7, i32 0, i32 44
  call void @_ZN3vecI3LitED2Ev(%class.vec.0* %30) #12
  %31 = getelementptr inbounds %class.Solver, %class.Solver* %7, i32 0, i32 43
  call void @_ZN3vecIcED2Ev(%class.vec.4* %31) #12
  %32 = getelementptr inbounds %class.Solver, %class.Solver* %7, i32 0, i32 39
  call void @_ZN4HeapIN6Solver10VarOrderLtEED2Ev(%class.Heap* %32) #12
  %33 = getelementptr inbounds %class.Solver, %class.Solver* %7, i32 0, i32 38
  call void @_ZN3vecI3LitED2Ev(%class.vec.0* %33) #12
  %34 = getelementptr inbounds %class.Solver, %class.Solver* %7, i32 0, i32 34
  call void @_ZN3vecIiED2Ev(%class.vec.5* %34) #12
  %35 = getelementptr inbounds %class.Solver, %class.Solver* %7, i32 0, i32 33
  call void @_ZN3vecIP6ClauseED2Ev(%class.vec.1* %35) #12
  %36 = getelementptr inbounds %class.Solver, %class.Solver* %7, i32 0, i32 32
  call void @_ZN3vecIiED2Ev(%class.vec.5* %36) #12
  %37 = getelementptr inbounds %class.Solver, %class.Solver* %7, i32 0, i32 31
  call void @_ZN3vecI3LitED2Ev(%class.vec.0* %37) #12
  %38 = getelementptr inbounds %class.Solver, %class.Solver* %7, i32 0, i32 30
  call void @_ZN3vecIcED2Ev(%class.vec.4* %38) #12
  %39 = getelementptr inbounds %class.Solver, %class.Solver* %7, i32 0, i32 29
  call void @_ZN3vecIcED2Ev(%class.vec.4* %39) #12
  %40 = getelementptr inbounds %class.Solver, %class.Solver* %7, i32 0, i32 28
  call void @_ZN3vecIcED2Ev(%class.vec.4* %40) #12
  %41 = getelementptr inbounds %class.Solver, %class.Solver* %7, i32 0, i32 27
  call void @_ZN3vecIS_IP6ClauseEED2Ev(%class.vec.3* %41) #12
  %42 = getelementptr inbounds %class.Solver, %class.Solver* %7, i32 0, i32 25
  call void @_ZN3vecIdED2Ev(%class.vec.2* %42) #12
  %43 = getelementptr inbounds %class.Solver, %class.Solver* %7, i32 0, i32 23
  call void @_ZN3vecIP6ClauseED2Ev(%class.vec.1* %43) #12
  %44 = getelementptr inbounds %class.Solver, %class.Solver* %7, i32 0, i32 22
  call void @_ZN3vecIP6ClauseED2Ev(%class.vec.1* %44) #12
  %45 = getelementptr inbounds %class.Solver, %class.Solver* %7, i32 0, i32 1
  call void @_ZN3vecI3LitED2Ev(%class.vec.0* %45) #12
  %46 = getelementptr inbounds %class.Solver, %class.Solver* %7, i32 0, i32 0
  call void @_ZN3vecI5lboolED2Ev(%class.vec* %46) #12
  br label %84

47:                                               ; preds = %12
  store i32 0, i32* %6, align 4
  br label %48

48:                                               ; preds = %61, %47
  %49 = load i32, i32* %6, align 4
  %50 = getelementptr inbounds %class.Solver, %class.Solver* %7, i32 0, i32 22
  %51 = invoke i32 @_ZNK3vecIP6ClauseE4sizeEv(%class.vec.1* %50)
          to label %52 unwind label %24

52:                                               ; preds = %48
  %53 = icmp slt i32 %49, %51
  br i1 %53, label %54, label %64

54:                                               ; preds = %52
  %55 = getelementptr inbounds %class.Solver, %class.Solver* %7, i32 0, i32 22
  %56 = load i32, i32* %6, align 4
  %57 = invoke dereferenceable(8) %class.Clause** @_ZN3vecIP6ClauseEixEi(%class.vec.1* %55, i32 %56)
          to label %58 unwind label %24

58:                                               ; preds = %54
  %59 = load %class.Clause*, %class.Clause** %57, align 8
  %60 = bitcast %class.Clause* %59 to i8*
  call void @free(i8* %60) #12
  br label %61

61:                                               ; preds = %58
  %62 = load i32, i32* %6, align 4
  %63 = add nsw i32 %62, 1
  store i32 %63, i32* %6, align 4
  br label %48

64:                                               ; preds = %52
  %65 = getelementptr inbounds %class.Solver, %class.Solver* %7, i32 0, i32 46
  call void @_ZN3vecI3LitED2Ev(%class.vec.0* %65) #12
  %66 = getelementptr inbounds %class.Solver, %class.Solver* %7, i32 0, i32 45
  call void @_ZN3vecI3LitED2Ev(%class.vec.0* %66) #12
  %67 = getelementptr inbounds %class.Solver, %class.Solver* %7, i32 0, i32 44
  call void @_ZN3vecI3LitED2Ev(%class.vec.0* %67) #12
  %68 = getelementptr inbounds %class.Solver, %class.Solver* %7, i32 0, i32 43
  call void @_ZN3vecIcED2Ev(%class.vec.4* %68) #12
  %69 = getelementptr inbounds %class.Solver, %class.Solver* %7, i32 0, i32 39
  call void @_ZN4HeapIN6Solver10VarOrderLtEED2Ev(%class.Heap* %69) #12
  %70 = getelementptr inbounds %class.Solver, %class.Solver* %7, i32 0, i32 38
  call void @_ZN3vecI3LitED2Ev(%class.vec.0* %70) #12
  %71 = getelementptr inbounds %class.Solver, %class.Solver* %7, i32 0, i32 34
  call void @_ZN3vecIiED2Ev(%class.vec.5* %71) #12
  %72 = getelementptr inbounds %class.Solver, %class.Solver* %7, i32 0, i32 33
  call void @_ZN3vecIP6ClauseED2Ev(%class.vec.1* %72) #12
  %73 = getelementptr inbounds %class.Solver, %class.Solver* %7, i32 0, i32 32
  call void @_ZN3vecIiED2Ev(%class.vec.5* %73) #12
  %74 = getelementptr inbounds %class.Solver, %class.Solver* %7, i32 0, i32 31
  call void @_ZN3vecI3LitED2Ev(%class.vec.0* %74) #12
  %75 = getelementptr inbounds %class.Solver, %class.Solver* %7, i32 0, i32 30
  call void @_ZN3vecIcED2Ev(%class.vec.4* %75) #12
  %76 = getelementptr inbounds %class.Solver, %class.Solver* %7, i32 0, i32 29
  call void @_ZN3vecIcED2Ev(%class.vec.4* %76) #12
  %77 = getelementptr inbounds %class.Solver, %class.Solver* %7, i32 0, i32 28
  call void @_ZN3vecIcED2Ev(%class.vec.4* %77) #12
  %78 = getelementptr inbounds %class.Solver, %class.Solver* %7, i32 0, i32 27
  call void @_ZN3vecIS_IP6ClauseEED2Ev(%class.vec.3* %78) #12
  %79 = getelementptr inbounds %class.Solver, %class.Solver* %7, i32 0, i32 25
  call void @_ZN3vecIdED2Ev(%class.vec.2* %79) #12
  %80 = getelementptr inbounds %class.Solver, %class.Solver* %7, i32 0, i32 23
  call void @_ZN3vecIP6ClauseED2Ev(%class.vec.1* %80) #12
  %81 = getelementptr inbounds %class.Solver, %class.Solver* %7, i32 0, i32 22
  call void @_ZN3vecIP6ClauseED2Ev(%class.vec.1* %81) #12
  %82 = getelementptr inbounds %class.Solver, %class.Solver* %7, i32 0, i32 1
  call void @_ZN3vecI3LitED2Ev(%class.vec.0* %82) #12
  %83 = getelementptr inbounds %class.Solver, %class.Solver* %7, i32 0, i32 0
  call void @_ZN3vecI5lboolED2Ev(%class.vec* %83) #12
  ret void

84:                                               ; preds = %24
  %85 = load i8*, i8** %4, align 8
  call void @__clang_call_terminate(i8* %85) #15
  unreachable
}

; Function Attrs: noinline nounwind uwtable
define linkonce_odr dso_local i32 @_ZNK3vecIP6ClauseE4sizeEv(%class.vec.1* %0) #1 comdat align 2 {
  %2 = alloca %class.vec.1*, align 8
  store %class.vec.1* %0, %class.vec.1** %2, align 8
  %3 = load %class.vec.1*, %class.vec.1** %2, align 8
  %4 = getelementptr inbounds %class.vec.1, %class.vec.1* %3, i32 0, i32 1
  %5 = load i32, i32* %4, align 8
  ret i32 %5
}

; Function Attrs: noinline nounwind uwtable
define linkonce_odr dso_local dereferenceable(8) %class.Clause** @_ZN3vecIP6ClauseEixEi(%class.vec.1* %0, i32 %1) #1 comdat align 2 {
  %3 = alloca %class.vec.1*, align 8
  %4 = alloca i32, align 4
  store %class.vec.1* %0, %class.vec.1** %3, align 8
  store i32 %1, i32* %4, align 4
  %5 = load %class.vec.1*, %class.vec.1** %3, align 8
  %6 = getelementptr inbounds %class.vec.1, %class.vec.1* %5, i32 0, i32 0
  %7 = load %class.Clause**, %class.Clause*** %6, align 8
  %8 = load i32, i32* %4, align 4
  %9 = sext i32 %8 to i64
  %10 = getelementptr inbounds %class.Clause*, %class.Clause** %7, i64 %9
  ret %class.Clause** %10
}

; Function Attrs: noinline uwtable
define dso_local i32 @_ZN6Solver6newVarEbb(%class.Solver* %0, i1 zeroext %1, i1 zeroext %2) #0 align 2 {
  %4 = alloca %class.Solver*, align 8
  %5 = alloca i8, align 1
  %6 = alloca i8, align 1
  %7 = alloca i32, align 4
  %8 = alloca %class.Clause*, align 8
  %9 = alloca i8, align 1
  %10 = alloca %class.lbool, align 1
  %11 = alloca i32, align 4
  %12 = alloca double, align 8
  %13 = alloca i8, align 1
  %14 = alloca i8, align 1
  %15 = alloca i8, align 1
  store %class.Solver* %0, %class.Solver** %4, align 8
  %16 = zext i1 %1 to i8
  store i8 %16, i8* %5, align 1
  %17 = zext i1 %2 to i8
  store i8 %17, i8* %6, align 1
  %18 = load %class.Solver*, %class.Solver** %4, align 8
  %19 = call i32 @_ZNK6Solver5nVarsEv(%class.Solver* %18)
  store i32 %19, i32* %7, align 4
  %20 = getelementptr inbounds %class.Solver, %class.Solver* %18, i32 0, i32 27
  call void @_ZN3vecIS_IP6ClauseEE4pushEv(%class.vec.3* %20)
  %21 = getelementptr inbounds %class.Solver, %class.Solver* %18, i32 0, i32 27
  call void @_ZN3vecIS_IP6ClauseEE4pushEv(%class.vec.3* %21)
  %22 = getelementptr inbounds %class.Solver, %class.Solver* %18, i32 0, i32 33
  store %class.Clause* null, %class.Clause** %8, align 8
  call void @_ZN3vecIP6ClauseE4pushERKS1_(%class.vec.1* %22, %class.Clause** dereferenceable(8) %8)
  %23 = getelementptr inbounds %class.Solver, %class.Solver* %18, i32 0, i32 28
  %24 = bitcast %class.lbool* %10 to i8*
  call void @llvm.memcpy.p0i8.p0i8.i64(i8* align 1 %24, i8* align 1 getelementptr inbounds (%class.lbool, %class.lbool* @_ZL7l_Undef.10, i32 0, i32 0), i64 1, i1 false)
  %25 = getelementptr inbounds %class.lbool, %class.lbool* %10, i32 0, i32 0
  %26 = load i8, i8* %25, align 1
  %27 = call i32 @_Z5toInt5lbool(i8 %26)
  %28 = trunc i32 %27 to i8
  store i8 %28, i8* %9, align 1
  call void @_ZN3vecIcE4pushERKc(%class.vec.4* %23, i8* dereferenceable(1) %9)
  %29 = getelementptr inbounds %class.Solver, %class.Solver* %18, i32 0, i32 34
  store i32 -1, i32* %11, align 4
  call void @_ZN3vecIiE4pushERKi(%class.vec.5* %29, i32* dereferenceable(4) %11)
  %30 = getelementptr inbounds %class.Solver, %class.Solver* %18, i32 0, i32 25
  store double 0.000000e+00, double* %12, align 8
  call void @_ZN3vecIdE4pushERKd(%class.vec.2* %30, double* dereferenceable(8) %12)
  %31 = getelementptr inbounds %class.Solver, %class.Solver* %18, i32 0, i32 43
  store i8 0, i8* %13, align 1
  call void @_ZN3vecIcE4pushERKc(%class.vec.4* %31, i8* dereferenceable(1) %13)
  %32 = getelementptr inbounds %class.Solver, %class.Solver* %18, i32 0, i32 29
  %33 = load i8, i8* %5, align 1
  %34 = trunc i8 %33 to i1
  %35 = zext i1 %34 to i8
  store i8 %35, i8* %14, align 1
  call void @_ZN3vecIcE4pushERKc(%class.vec.4* %32, i8* dereferenceable(1) %14)
  %36 = getelementptr inbounds %class.Solver, %class.Solver* %18, i32 0, i32 30
  %37 = load i8, i8* %6, align 1
  %38 = trunc i8 %37 to i1
  %39 = zext i1 %38 to i8
  store i8 %39, i8* %15, align 1
  call void @_ZN3vecIcE4pushERKc(%class.vec.4* %36, i8* dereferenceable(1) %15)
  %40 = load i32, i32* %7, align 4
  call void @_ZN6Solver14insertVarOrderEi(%class.Solver* %18, i32 %40)
  %41 = load i32, i32* %7, align 4
  ret i32 %41
}

; Function Attrs: noinline uwtable
define linkonce_odr dso_local void @_ZN3vecIS_IP6ClauseEE4pushEv(%class.vec.3* %0) #0 comdat align 2 {
  %2 = alloca %class.vec.3*, align 8
  store %class.vec.3* %0, %class.vec.3** %2, align 8
  %3 = load %class.vec.3*, %class.vec.3** %2, align 8
  %4 = getelementptr inbounds %class.vec.3, %class.vec.3* %3, i32 0, i32 1
  %5 = load i32, i32* %4, align 8
  %6 = getelementptr inbounds %class.vec.3, %class.vec.3* %3, i32 0, i32 2
  %7 = load i32, i32* %6, align 4
  %8 = icmp eq i32 %5, %7
  br i1 %8, label %9, label %27

9:                                                ; preds = %1
  %10 = getelementptr inbounds %class.vec.3, %class.vec.3* %3, i32 0, i32 2
  %11 = load i32, i32* %10, align 4
  %12 = mul nsw i32 %11, 3
  %13 = add nsw i32 %12, 1
  %14 = ashr i32 %13, 1
  %15 = call i32 @_ZN3vecIS_IP6ClauseEE4imaxEii(i32 2, i32 %14)
  %16 = getelementptr inbounds %class.vec.3, %class.vec.3* %3, i32 0, i32 2
  store i32 %15, i32* %16, align 4
  %17 = getelementptr inbounds %class.vec.3, %class.vec.3* %3, i32 0, i32 0
  %18 = load %class.vec.1*, %class.vec.1** %17, align 8
  %19 = bitcast %class.vec.1* %18 to i8*
  %20 = getelementptr inbounds %class.vec.3, %class.vec.3* %3, i32 0, i32 2
  %21 = load i32, i32* %20, align 4
  %22 = sext i32 %21 to i64
  %23 = mul i64 %22, 16
  %24 = call i8* @realloc(i8* %19, i64 %23) #12
  %25 = bitcast i8* %24 to %class.vec.1*
  %26 = getelementptr inbounds %class.vec.3, %class.vec.3* %3, i32 0, i32 0
  store %class.vec.1* %25, %class.vec.1** %26, align 8
  br label %27

27:                                               ; preds = %9, %1
  %28 = getelementptr inbounds %class.vec.3, %class.vec.3* %3, i32 0, i32 0
  %29 = load %class.vec.1*, %class.vec.1** %28, align 8
  %30 = getelementptr inbounds %class.vec.3, %class.vec.3* %3, i32 0, i32 1
  %31 = load i32, i32* %30, align 8
  %32 = sext i32 %31 to i64
  %33 = getelementptr inbounds %class.vec.1, %class.vec.1* %29, i64 %32
  %34 = bitcast %class.vec.1* %33 to i8*
  %35 = bitcast i8* %34 to %class.vec.1*
  call void @_ZN3vecIP6ClauseEC2Ev(%class.vec.1* %35)
  %36 = getelementptr inbounds %class.vec.3, %class.vec.3* %3, i32 0, i32 1
  %37 = load i32, i32* %36, align 8
  %38 = add nsw i32 %37, 1
  store i32 %38, i32* %36, align 8
  ret void
}

; Function Attrs: noinline uwtable
define linkonce_odr dso_local void @_ZN3vecIP6ClauseE4pushERKS1_(%class.vec.1* %0, %class.Clause** dereferenceable(8) %1) #0 comdat align 2 {
  %3 = alloca %class.vec.1*, align 8
  %4 = alloca %class.Clause**, align 8
  store %class.vec.1* %0, %class.vec.1** %3, align 8
  store %class.Clause** %1, %class.Clause*** %4, align 8
  %5 = load %class.vec.1*, %class.vec.1** %3, align 8
  %6 = getelementptr inbounds %class.vec.1, %class.vec.1* %5, i32 0, i32 1
  %7 = load i32, i32* %6, align 8
  %8 = getelementptr inbounds %class.vec.1, %class.vec.1* %5, i32 0, i32 2
  %9 = load i32, i32* %8, align 4
  %10 = icmp eq i32 %7, %9
  br i1 %10, label %11, label %29

11:                                               ; preds = %2
  %12 = getelementptr inbounds %class.vec.1, %class.vec.1* %5, i32 0, i32 2
  %13 = load i32, i32* %12, align 4
  %14 = mul nsw i32 %13, 3
  %15 = add nsw i32 %14, 1
  %16 = ashr i32 %15, 1
  %17 = call i32 @_ZN3vecIP6ClauseE4imaxEii(i32 2, i32 %16)
  %18 = getelementptr inbounds %class.vec.1, %class.vec.1* %5, i32 0, i32 2
  store i32 %17, i32* %18, align 4
  %19 = getelementptr inbounds %class.vec.1, %class.vec.1* %5, i32 0, i32 0
  %20 = load %class.Clause**, %class.Clause*** %19, align 8
  %21 = bitcast %class.Clause** %20 to i8*
  %22 = getelementptr inbounds %class.vec.1, %class.vec.1* %5, i32 0, i32 2
  %23 = load i32, i32* %22, align 4
  %24 = sext i32 %23 to i64
  %25 = mul i64 %24, 8
  %26 = call i8* @realloc(i8* %21, i64 %25) #12
  %27 = bitcast i8* %26 to %class.Clause**
  %28 = getelementptr inbounds %class.vec.1, %class.vec.1* %5, i32 0, i32 0
  store %class.Clause** %27, %class.Clause*** %28, align 8
  br label %29

29:                                               ; preds = %11, %2
  %30 = load %class.Clause**, %class.Clause*** %4, align 8
  %31 = load %class.Clause*, %class.Clause** %30, align 8
  %32 = getelementptr inbounds %class.vec.1, %class.vec.1* %5, i32 0, i32 0
  %33 = load %class.Clause**, %class.Clause*** %32, align 8
  %34 = getelementptr inbounds %class.vec.1, %class.vec.1* %5, i32 0, i32 1
  %35 = load i32, i32* %34, align 8
  %36 = add nsw i32 %35, 1
  store i32 %36, i32* %34, align 8
  %37 = sext i32 %35 to i64
  %38 = getelementptr inbounds %class.Clause*, %class.Clause** %33, i64 %37
  store %class.Clause* %31, %class.Clause** %38, align 8
  ret void
}

; Function Attrs: noinline uwtable
define linkonce_odr dso_local i32 @_Z5toInt5lbool(i8 %0) #0 comdat {
  %2 = alloca %class.lbool, align 1
  %3 = getelementptr inbounds %class.lbool, %class.lbool* %2, i32 0, i32 0
  store i8 %0, i8* %3, align 1
  %4 = call i32 @_ZNK5lbool5toIntEv(%class.lbool* %2)
  ret i32 %4
}

; Function Attrs: noinline uwtable
define linkonce_odr dso_local void @_ZN3vecIcE4pushERKc(%class.vec.4* %0, i8* dereferenceable(1) %1) #0 comdat align 2 {
  %3 = alloca %class.vec.4*, align 8
  %4 = alloca i8*, align 8
  store %class.vec.4* %0, %class.vec.4** %3, align 8
  store i8* %1, i8** %4, align 8
  %5 = load %class.vec.4*, %class.vec.4** %3, align 8
  %6 = getelementptr inbounds %class.vec.4, %class.vec.4* %5, i32 0, i32 1
  %7 = load i32, i32* %6, align 8
  %8 = getelementptr inbounds %class.vec.4, %class.vec.4* %5, i32 0, i32 2
  %9 = load i32, i32* %8, align 4
  %10 = icmp eq i32 %7, %9
  br i1 %10, label %11, label %27

11:                                               ; preds = %2
  %12 = getelementptr inbounds %class.vec.4, %class.vec.4* %5, i32 0, i32 2
  %13 = load i32, i32* %12, align 4
  %14 = mul nsw i32 %13, 3
  %15 = add nsw i32 %14, 1
  %16 = ashr i32 %15, 1
  %17 = call i32 @_ZN3vecIcE4imaxEii(i32 2, i32 %16)
  %18 = getelementptr inbounds %class.vec.4, %class.vec.4* %5, i32 0, i32 2
  store i32 %17, i32* %18, align 4
  %19 = getelementptr inbounds %class.vec.4, %class.vec.4* %5, i32 0, i32 0
  %20 = load i8*, i8** %19, align 8
  %21 = getelementptr inbounds %class.vec.4, %class.vec.4* %5, i32 0, i32 2
  %22 = load i32, i32* %21, align 4
  %23 = sext i32 %22 to i64
  %24 = mul i64 %23, 1
  %25 = call i8* @realloc(i8* %20, i64 %24) #12
  %26 = getelementptr inbounds %class.vec.4, %class.vec.4* %5, i32 0, i32 0
  store i8* %25, i8** %26, align 8
  br label %27

27:                                               ; preds = %11, %2
  %28 = load i8*, i8** %4, align 8
  %29 = load i8, i8* %28, align 1
  %30 = getelementptr inbounds %class.vec.4, %class.vec.4* %5, i32 0, i32 0
  %31 = load i8*, i8** %30, align 8
  %32 = getelementptr inbounds %class.vec.4, %class.vec.4* %5, i32 0, i32 1
  %33 = load i32, i32* %32, align 8
  %34 = add nsw i32 %33, 1
  store i32 %34, i32* %32, align 8
  %35 = sext i32 %33 to i64
  %36 = getelementptr inbounds i8, i8* %31, i64 %35
  store i8 %29, i8* %36, align 1
  ret void
}

; Function Attrs: noinline uwtable
define linkonce_odr dso_local void @_ZN3vecIiE4pushERKi(%class.vec.5* %0, i32* dereferenceable(4) %1) #0 comdat align 2 {
  %3 = alloca %class.vec.5*, align 8
  %4 = alloca i32*, align 8
  store %class.vec.5* %0, %class.vec.5** %3, align 8
  store i32* %1, i32** %4, align 8
  %5 = load %class.vec.5*, %class.vec.5** %3, align 8
  %6 = getelementptr inbounds %class.vec.5, %class.vec.5* %5, i32 0, i32 1
  %7 = load i32, i32* %6, align 8
  %8 = getelementptr inbounds %class.vec.5, %class.vec.5* %5, i32 0, i32 2
  %9 = load i32, i32* %8, align 4
  %10 = icmp eq i32 %7, %9
  br i1 %10, label %11, label %29

11:                                               ; preds = %2
  %12 = getelementptr inbounds %class.vec.5, %class.vec.5* %5, i32 0, i32 2
  %13 = load i32, i32* %12, align 4
  %14 = mul nsw i32 %13, 3
  %15 = add nsw i32 %14, 1
  %16 = ashr i32 %15, 1
  %17 = call i32 @_ZN3vecIiE4imaxEii(i32 2, i32 %16)
  %18 = getelementptr inbounds %class.vec.5, %class.vec.5* %5, i32 0, i32 2
  store i32 %17, i32* %18, align 4
  %19 = getelementptr inbounds %class.vec.5, %class.vec.5* %5, i32 0, i32 0
  %20 = load i32*, i32** %19, align 8
  %21 = bitcast i32* %20 to i8*
  %22 = getelementptr inbounds %class.vec.5, %class.vec.5* %5, i32 0, i32 2
  %23 = load i32, i32* %22, align 4
  %24 = sext i32 %23 to i64
  %25 = mul i64 %24, 4
  %26 = call i8* @realloc(i8* %21, i64 %25) #12
  %27 = bitcast i8* %26 to i32*
  %28 = getelementptr inbounds %class.vec.5, %class.vec.5* %5, i32 0, i32 0
  store i32* %27, i32** %28, align 8
  br label %29

29:                                               ; preds = %11, %2
  %30 = load i32*, i32** %4, align 8
  %31 = load i32, i32* %30, align 4
  %32 = getelementptr inbounds %class.vec.5, %class.vec.5* %5, i32 0, i32 0
  %33 = load i32*, i32** %32, align 8
  %34 = getelementptr inbounds %class.vec.5, %class.vec.5* %5, i32 0, i32 1
  %35 = load i32, i32* %34, align 8
  %36 = add nsw i32 %35, 1
  store i32 %36, i32* %34, align 8
  %37 = sext i32 %35 to i64
  %38 = getelementptr inbounds i32, i32* %33, i64 %37
  store i32 %31, i32* %38, align 4
  ret void
}

; Function Attrs: noinline uwtable
define linkonce_odr dso_local void @_ZN3vecIdE4pushERKd(%class.vec.2* %0, double* dereferenceable(8) %1) #0 comdat align 2 {
  %3 = alloca %class.vec.2*, align 8
  %4 = alloca double*, align 8
  store %class.vec.2* %0, %class.vec.2** %3, align 8
  store double* %1, double** %4, align 8
  %5 = load %class.vec.2*, %class.vec.2** %3, align 8
  %6 = getelementptr inbounds %class.vec.2, %class.vec.2* %5, i32 0, i32 1
  %7 = load i32, i32* %6, align 8
  %8 = getelementptr inbounds %class.vec.2, %class.vec.2* %5, i32 0, i32 2
  %9 = load i32, i32* %8, align 4
  %10 = icmp eq i32 %7, %9
  br i1 %10, label %11, label %29

11:                                               ; preds = %2
  %12 = getelementptr inbounds %class.vec.2, %class.vec.2* %5, i32 0, i32 2
  %13 = load i32, i32* %12, align 4
  %14 = mul nsw i32 %13, 3
  %15 = add nsw i32 %14, 1
  %16 = ashr i32 %15, 1
  %17 = call i32 @_ZN3vecIdE4imaxEii(i32 2, i32 %16)
  %18 = getelementptr inbounds %class.vec.2, %class.vec.2* %5, i32 0, i32 2
  store i32 %17, i32* %18, align 4
  %19 = getelementptr inbounds %class.vec.2, %class.vec.2* %5, i32 0, i32 0
  %20 = load double*, double** %19, align 8
  %21 = bitcast double* %20 to i8*
  %22 = getelementptr inbounds %class.vec.2, %class.vec.2* %5, i32 0, i32 2
  %23 = load i32, i32* %22, align 4
  %24 = sext i32 %23 to i64
  %25 = mul i64 %24, 8
  %26 = call i8* @realloc(i8* %21, i64 %25) #12
  %27 = bitcast i8* %26 to double*
  %28 = getelementptr inbounds %class.vec.2, %class.vec.2* %5, i32 0, i32 0
  store double* %27, double** %28, align 8
  br label %29

29:                                               ; preds = %11, %2
  %30 = load double*, double** %4, align 8
  %31 = load double, double* %30, align 8
  %32 = getelementptr inbounds %class.vec.2, %class.vec.2* %5, i32 0, i32 0
  %33 = load double*, double** %32, align 8
  %34 = getelementptr inbounds %class.vec.2, %class.vec.2* %5, i32 0, i32 1
  %35 = load i32, i32* %34, align 8
  %36 = add nsw i32 %35, 1
  store i32 %36, i32* %34, align 8
  %37 = sext i32 %35 to i64
  %38 = getelementptr inbounds double, double* %33, i64 %37
  store double %31, double* %38, align 8
  ret void
}

; Function Attrs: noinline uwtable
define linkonce_odr dso_local void @_ZN6Solver14insertVarOrderEi(%class.Solver* %0, i32 %1) #0 comdat align 2 {
  %3 = alloca %class.Solver*, align 8
  %4 = alloca i32, align 4
  store %class.Solver* %0, %class.Solver** %3, align 8
  store i32 %1, i32* %4, align 4
  %5 = load %class.Solver*, %class.Solver** %3, align 8
  %6 = getelementptr inbounds %class.Solver, %class.Solver* %5, i32 0, i32 39
  %7 = load i32, i32* %4, align 4
  %8 = call zeroext i1 @_ZNK4HeapIN6Solver10VarOrderLtEE6inHeapEi(%class.Heap* %6, i32 %7)
  br i1 %8, label %18, label %9

9:                                                ; preds = %2
  %10 = getelementptr inbounds %class.Solver, %class.Solver* %5, i32 0, i32 30
  %11 = load i32, i32* %4, align 4
  %12 = call dereferenceable(1) i8* @_ZN3vecIcEixEi(%class.vec.4* %10, i32 %11)
  %13 = load i8, i8* %12, align 1
  %14 = icmp ne i8 %13, 0
  br i1 %14, label %15, label %18

15:                                               ; preds = %9
  %16 = getelementptr inbounds %class.Solver, %class.Solver* %5, i32 0, i32 39
  %17 = load i32, i32* %4, align 4
  call void @_ZN4HeapIN6Solver10VarOrderLtEE6insertEi(%class.Heap* %16, i32 %17)
  br label %18

18:                                               ; preds = %15, %9, %2
  ret void
}

; Function Attrs: noinline uwtable
define linkonce_odr dso_local zeroext i1 @_ZNK4HeapIN6Solver10VarOrderLtEE6inHeapEi(%class.Heap* %0, i32 %1) #0 comdat align 2 {
  %3 = alloca %class.Heap*, align 8
  %4 = alloca i32, align 4
  store %class.Heap* %0, %class.Heap** %3, align 8
  store i32 %1, i32* %4, align 4
  %5 = load %class.Heap*, %class.Heap** %3, align 8
  %6 = load i32, i32* %4, align 4
  %7 = getelementptr inbounds %class.Heap, %class.Heap* %5, i32 0, i32 2
  %8 = call i32 @_ZNK3vecIiE4sizeEv(%class.vec.5* %7)
  %9 = icmp slt i32 %6, %8
  br i1 %9, label %10, label %16

10:                                               ; preds = %2
  %11 = getelementptr inbounds %class.Heap, %class.Heap* %5, i32 0, i32 2
  %12 = load i32, i32* %4, align 4
  %13 = call dereferenceable(4) i32* @_ZNK3vecIiEixEi(%class.vec.5* %11, i32 %12)
  %14 = load i32, i32* %13, align 4
  %15 = icmp sge i32 %14, 0
  br label %16

16:                                               ; preds = %10, %2
  %17 = phi i1 [ false, %2 ], [ %15, %10 ]
  ret i1 %17
}

; Function Attrs: noinline nounwind uwtable
define linkonce_odr dso_local dereferenceable(1) i8* @_ZN3vecIcEixEi(%class.vec.4* %0, i32 %1) #1 comdat align 2 {
  %3 = alloca %class.vec.4*, align 8
  %4 = alloca i32, align 4
  store %class.vec.4* %0, %class.vec.4** %3, align 8
  store i32 %1, i32* %4, align 4
  %5 = load %class.vec.4*, %class.vec.4** %3, align 8
  %6 = getelementptr inbounds %class.vec.4, %class.vec.4* %5, i32 0, i32 0
  %7 = load i8*, i8** %6, align 8
  %8 = load i32, i32* %4, align 4
  %9 = sext i32 %8 to i64
  %10 = getelementptr inbounds i8, i8* %7, i64 %9
  ret i8* %10
}

; Function Attrs: noinline uwtable
define linkonce_odr dso_local void @_ZN4HeapIN6Solver10VarOrderLtEE6insertEi(%class.Heap* %0, i32 %1) #0 comdat align 2 {
  %3 = alloca %class.Heap*, align 8
  %4 = alloca i32, align 4
  %5 = alloca i32, align 4
  store %class.Heap* %0, %class.Heap** %3, align 8
  store i32 %1, i32* %4, align 4
  %6 = load %class.Heap*, %class.Heap** %3, align 8
  %7 = getelementptr inbounds %class.Heap, %class.Heap* %6, i32 0, i32 2
  %8 = load i32, i32* %4, align 4
  %9 = add nsw i32 %8, 1
  store i32 -1, i32* %5, align 4
  call void @_ZN3vecIiE6growToEiRKi(%class.vec.5* %7, i32 %9, i32* dereferenceable(4) %5)
  %10 = load i32, i32* %4, align 4
  %11 = call zeroext i1 @_ZNK4HeapIN6Solver10VarOrderLtEE6inHeapEi(%class.Heap* %6, i32 %10)
  %12 = xor i1 %11, true
  br i1 %12, label %13, label %14

13:                                               ; preds = %2
  br label %16

14:                                               ; preds = %2
  call void @__assert_fail(i8* getelementptr inbounds ([11 x i8], [11 x i8]* @.str.27.17, i64 0, i64 0), i8* getelementptr inbounds ([9 x i8], [9 x i8]* @.str.28.18, i64 0, i64 0), i32 91, i8* getelementptr inbounds ([71 x i8], [71 x i8]* @__PRETTY_FUNCTION__._ZN4HeapIN6Solver10VarOrderLtEE6insertEi, i64 0, i64 0)) #15
  unreachable

15:                                               ; No predecessors!
  br label %16

16:                                               ; preds = %15, %13
  %17 = getelementptr inbounds %class.Heap, %class.Heap* %6, i32 0, i32 1
  %18 = call i32 @_ZNK3vecIiE4sizeEv(%class.vec.5* %17)
  %19 = getelementptr inbounds %class.Heap, %class.Heap* %6, i32 0, i32 2
  %20 = load i32, i32* %4, align 4
  %21 = call dereferenceable(4) i32* @_ZN3vecIiEixEi(%class.vec.5* %19, i32 %20)
  store i32 %18, i32* %21, align 4
  %22 = getelementptr inbounds %class.Heap, %class.Heap* %6, i32 0, i32 1
  call void @_ZN3vecIiE4pushERKi(%class.vec.5* %22, i32* dereferenceable(4) %4)
  %23 = getelementptr inbounds %class.Heap, %class.Heap* %6, i32 0, i32 2
  %24 = load i32, i32* %4, align 4
  %25 = call dereferenceable(4) i32* @_ZN3vecIiEixEi(%class.vec.5* %23, i32 %24)
  %26 = load i32, i32* %25, align 4
  call void @_ZN4HeapIN6Solver10VarOrderLtEE11percolateUpEi(%class.Heap* %6, i32 %26)
  ret void
}

; Function Attrs: noinline uwtable
define linkonce_odr dso_local void @_ZN3vecIiE6growToEiRKi(%class.vec.5* %0, i32 %1, i32* dereferenceable(4) %2) #0 comdat align 2 {
  %4 = alloca %class.vec.5*, align 8
  %5 = alloca i32, align 4
  %6 = alloca i32*, align 8
  %7 = alloca i32, align 4
  store %class.vec.5* %0, %class.vec.5** %4, align 8
  store i32 %1, i32* %5, align 4
  store i32* %2, i32** %6, align 8
  %8 = load %class.vec.5*, %class.vec.5** %4, align 8
  %9 = getelementptr inbounds %class.vec.5, %class.vec.5* %8, i32 0, i32 1
  %10 = load i32, i32* %9, align 8
  %11 = load i32, i32* %5, align 4
  %12 = icmp sge i32 %10, %11
  br i1 %12, label %13, label %14

13:                                               ; preds = %3
  br label %38

14:                                               ; preds = %3
  %15 = load i32, i32* %5, align 4
  call void @_ZN3vecIiE4growEi(%class.vec.5* %8, i32 %15)
  %16 = getelementptr inbounds %class.vec.5, %class.vec.5* %8, i32 0, i32 1
  %17 = load i32, i32* %16, align 8
  store i32 %17, i32* %7, align 4
  br label %18

18:                                               ; preds = %32, %14
  %19 = load i32, i32* %7, align 4
  %20 = load i32, i32* %5, align 4
  %21 = icmp slt i32 %19, %20
  br i1 %21, label %22, label %35

22:                                               ; preds = %18
  %23 = getelementptr inbounds %class.vec.5, %class.vec.5* %8, i32 0, i32 0
  %24 = load i32*, i32** %23, align 8
  %25 = load i32, i32* %7, align 4
  %26 = sext i32 %25 to i64
  %27 = getelementptr inbounds i32, i32* %24, i64 %26
  %28 = bitcast i32* %27 to i8*
  %29 = bitcast i8* %28 to i32*
  %30 = load i32*, i32** %6, align 8
  %31 = load i32, i32* %30, align 4
  store i32 %31, i32* %29, align 4
  br label %32

32:                                               ; preds = %22
  %33 = load i32, i32* %7, align 4
  %34 = add nsw i32 %33, 1
  store i32 %34, i32* %7, align 4
  br label %18

35:                                               ; preds = %18
  %36 = load i32, i32* %5, align 4
  %37 = getelementptr inbounds %class.vec.5, %class.vec.5* %8, i32 0, i32 1
  store i32 %36, i32* %37, align 8
  br label %38

38:                                               ; preds = %35, %13
  ret void
}

; Function Attrs: noreturn nounwind
declare dso_local void @__assert_fail(i8*, i8*, i32, i8*) #7

; Function Attrs: noinline nounwind uwtable
define linkonce_odr dso_local i32 @_ZNK3vecIiE4sizeEv(%class.vec.5* %0) #1 comdat align 2 {
  %2 = alloca %class.vec.5*, align 8
  store %class.vec.5* %0, %class.vec.5** %2, align 8
  %3 = load %class.vec.5*, %class.vec.5** %2, align 8
  %4 = getelementptr inbounds %class.vec.5, %class.vec.5* %3, i32 0, i32 1
  %5 = load i32, i32* %4, align 8
  ret i32 %5
}

; Function Attrs: noinline nounwind uwtable
define linkonce_odr dso_local dereferenceable(4) i32* @_ZN3vecIiEixEi(%class.vec.5* %0, i32 %1) #1 comdat align 2 {
  %3 = alloca %class.vec.5*, align 8
  %4 = alloca i32, align 4
  store %class.vec.5* %0, %class.vec.5** %3, align 8
  store i32 %1, i32* %4, align 4
  %5 = load %class.vec.5*, %class.vec.5** %3, align 8
  %6 = getelementptr inbounds %class.vec.5, %class.vec.5* %5, i32 0, i32 0
  %7 = load i32*, i32** %6, align 8
  %8 = load i32, i32* %4, align 4
  %9 = sext i32 %8 to i64
  %10 = getelementptr inbounds i32, i32* %7, i64 %9
  ret i32* %10
}

; Function Attrs: noinline uwtable
define linkonce_odr dso_local void @_ZN4HeapIN6Solver10VarOrderLtEE11percolateUpEi(%class.Heap* %0, i32 %1) #0 comdat align 2 {
  %3 = alloca %class.Heap*, align 8
  %4 = alloca i32, align 4
  %5 = alloca i32, align 4
  store %class.Heap* %0, %class.Heap** %3, align 8
  store i32 %1, i32* %4, align 4
  %6 = load %class.Heap*, %class.Heap** %3, align 8
  %7 = getelementptr inbounds %class.Heap, %class.Heap* %6, i32 0, i32 1
  %8 = load i32, i32* %4, align 4
  %9 = call dereferenceable(4) i32* @_ZN3vecIiEixEi(%class.vec.5* %7, i32 %8)
  %10 = load i32, i32* %9, align 4
  store i32 %10, i32* %5, align 4
  br label %11

11:                                               ; preds = %25, %2
  %12 = load i32, i32* %4, align 4
  %13 = icmp ne i32 %12, 0
  br i1 %13, label %14, label %23

14:                                               ; preds = %11
  %15 = getelementptr inbounds %class.Heap, %class.Heap* %6, i32 0, i32 0
  %16 = load i32, i32* %5, align 4
  %17 = getelementptr inbounds %class.Heap, %class.Heap* %6, i32 0, i32 1
  %18 = load i32, i32* %4, align 4
  %19 = call i32 @_ZN4HeapIN6Solver10VarOrderLtEE6parentEi(i32 %18)
  %20 = call dereferenceable(4) i32* @_ZN3vecIiEixEi(%class.vec.5* %17, i32 %19)
  %21 = load i32, i32* %20, align 4
  %22 = call zeroext i1 @_ZNK6Solver10VarOrderLtclEii(%"struct.Solver::VarOrderLt"* %15, i32 %16, i32 %21)
  br label %23

23:                                               ; preds = %14, %11
  %24 = phi i1 [ false, %11 ], [ %22, %14 ]
  br i1 %24, label %25, label %43

25:                                               ; preds = %23
  %26 = getelementptr inbounds %class.Heap, %class.Heap* %6, i32 0, i32 1
  %27 = load i32, i32* %4, align 4
  %28 = call i32 @_ZN4HeapIN6Solver10VarOrderLtEE6parentEi(i32 %27)
  %29 = call dereferenceable(4) i32* @_ZN3vecIiEixEi(%class.vec.5* %26, i32 %28)
  %30 = load i32, i32* %29, align 4
  %31 = getelementptr inbounds %class.Heap, %class.Heap* %6, i32 0, i32 1
  %32 = load i32, i32* %4, align 4
  %33 = call dereferenceable(4) i32* @_ZN3vecIiEixEi(%class.vec.5* %31, i32 %32)
  store i32 %30, i32* %33, align 4
  %34 = load i32, i32* %4, align 4
  %35 = getelementptr inbounds %class.Heap, %class.Heap* %6, i32 0, i32 2
  %36 = getelementptr inbounds %class.Heap, %class.Heap* %6, i32 0, i32 1
  %37 = load i32, i32* %4, align 4
  %38 = call dereferenceable(4) i32* @_ZN3vecIiEixEi(%class.vec.5* %36, i32 %37)
  %39 = load i32, i32* %38, align 4
  %40 = call dereferenceable(4) i32* @_ZN3vecIiEixEi(%class.vec.5* %35, i32 %39)
  store i32 %34, i32* %40, align 4
  %41 = load i32, i32* %4, align 4
  %42 = call i32 @_ZN4HeapIN6Solver10VarOrderLtEE6parentEi(i32 %41)
  store i32 %42, i32* %4, align 4
  br label %11

43:                                               ; preds = %23
  %44 = load i32, i32* %5, align 4
  %45 = getelementptr inbounds %class.Heap, %class.Heap* %6, i32 0, i32 1
  %46 = load i32, i32* %4, align 4
  %47 = call dereferenceable(4) i32* @_ZN3vecIiEixEi(%class.vec.5* %45, i32 %46)
  store i32 %44, i32* %47, align 4
  %48 = load i32, i32* %4, align 4
  %49 = getelementptr inbounds %class.Heap, %class.Heap* %6, i32 0, i32 2
  %50 = load i32, i32* %5, align 4
  %51 = call dereferenceable(4) i32* @_ZN3vecIiEixEi(%class.vec.5* %49, i32 %50)
  store i32 %48, i32* %51, align 4
  ret void
}

; Function Attrs: noinline nounwind uwtable
define linkonce_odr dso_local i32 @_ZN4HeapIN6Solver10VarOrderLtEE6parentEi(i32 %0) #1 comdat align 2 {
  %2 = alloca i32, align 4
  store i32 %0, i32* %2, align 4
  %3 = load i32, i32* %2, align 4
  %4 = sub nsw i32 %3, 1
  %5 = ashr i32 %4, 1
  ret i32 %5
}

; Function Attrs: noinline uwtable
define linkonce_odr dso_local zeroext i1 @_ZNK6Solver10VarOrderLtclEii(%"struct.Solver::VarOrderLt"* %0, i32 %1, i32 %2) #0 comdat align 2 {
  %4 = alloca %"struct.Solver::VarOrderLt"*, align 8
  %5 = alloca i32, align 4
  %6 = alloca i32, align 4
  store %"struct.Solver::VarOrderLt"* %0, %"struct.Solver::VarOrderLt"** %4, align 8
  store i32 %1, i32* %5, align 4
  store i32 %2, i32* %6, align 4
  %7 = load %"struct.Solver::VarOrderLt"*, %"struct.Solver::VarOrderLt"** %4, align 8
  %8 = getelementptr inbounds %"struct.Solver::VarOrderLt", %"struct.Solver::VarOrderLt"* %7, i32 0, i32 0
  %9 = load %class.vec.2*, %class.vec.2** %8, align 8
  %10 = load i32, i32* %5, align 4
  %11 = call dereferenceable(8) double* @_ZNK3vecIdEixEi(%class.vec.2* %9, i32 %10)
  %12 = load double, double* %11, align 8
  %13 = getelementptr inbounds %"struct.Solver::VarOrderLt", %"struct.Solver::VarOrderLt"* %7, i32 0, i32 0
  %14 = load %class.vec.2*, %class.vec.2** %13, align 8
  %15 = load i32, i32* %6, align 4
  %16 = call dereferenceable(8) double* @_ZNK3vecIdEixEi(%class.vec.2* %14, i32 %15)
  %17 = load double, double* %16, align 8
  %18 = fcmp ogt double %12, %17
  ret i1 %18
}

; Function Attrs: noinline nounwind uwtable
define linkonce_odr dso_local dereferenceable(8) double* @_ZNK3vecIdEixEi(%class.vec.2* %0, i32 %1) #1 comdat align 2 {
  %3 = alloca %class.vec.2*, align 8
  %4 = alloca i32, align 4
  store %class.vec.2* %0, %class.vec.2** %3, align 8
  store i32 %1, i32* %4, align 4
  %5 = load %class.vec.2*, %class.vec.2** %3, align 8
  %6 = getelementptr inbounds %class.vec.2, %class.vec.2* %5, i32 0, i32 0
  %7 = load double*, double** %6, align 8
  %8 = load i32, i32* %4, align 4
  %9 = sext i32 %8 to i64
  %10 = getelementptr inbounds double, double* %7, i64 %9
  ret double* %10
}

; Function Attrs: noinline nounwind uwtable
define linkonce_odr dso_local void @_ZN3vecIiE4growEi(%class.vec.5* %0, i32 %1) #1 comdat align 2 {
  %3 = alloca %class.vec.5*, align 8
  %4 = alloca i32, align 4
  store %class.vec.5* %0, %class.vec.5** %3, align 8
  store i32 %1, i32* %4, align 4
  %5 = load %class.vec.5*, %class.vec.5** %3, align 8
  %6 = load i32, i32* %4, align 4
  %7 = getelementptr inbounds %class.vec.5, %class.vec.5* %5, i32 0, i32 2
  %8 = load i32, i32* %7, align 4
  %9 = icmp sle i32 %6, %8
  br i1 %9, label %10, label %11

10:                                               ; preds = %2
  br label %49

11:                                               ; preds = %2
  %12 = getelementptr inbounds %class.vec.5, %class.vec.5* %5, i32 0, i32 2
  %13 = load i32, i32* %12, align 4
  %14 = icmp eq i32 %13, 0
  br i1 %14, label %15, label %24

15:                                               ; preds = %11
  %16 = load i32, i32* %4, align 4
  %17 = icmp sge i32 %16, 2
  br i1 %17, label %18, label %20

18:                                               ; preds = %15
  %19 = load i32, i32* %4, align 4
  br label %21

20:                                               ; preds = %15
  br label %21

21:                                               ; preds = %20, %18
  %22 = phi i32 [ %19, %18 ], [ 2, %20 ]
  %23 = getelementptr inbounds %class.vec.5, %class.vec.5* %5, i32 0, i32 2
  store i32 %22, i32* %23, align 4
  br label %38

24:                                               ; preds = %11
  br label %25

25:                                               ; preds = %32, %24
  %26 = getelementptr inbounds %class.vec.5, %class.vec.5* %5, i32 0, i32 2
  %27 = load i32, i32* %26, align 4
  %28 = mul nsw i32 %27, 3
  %29 = add nsw i32 %28, 1
  %30 = ashr i32 %29, 1
  %31 = getelementptr inbounds %class.vec.5, %class.vec.5* %5, i32 0, i32 2
  store i32 %30, i32* %31, align 4
  br label %32

32:                                               ; preds = %25
  %33 = getelementptr inbounds %class.vec.5, %class.vec.5* %5, i32 0, i32 2
  %34 = load i32, i32* %33, align 4
  %35 = load i32, i32* %4, align 4
  %36 = icmp slt i32 %34, %35
  br i1 %36, label %25, label %37

37:                                               ; preds = %32
  br label %38

38:                                               ; preds = %37, %21
  %39 = getelementptr inbounds %class.vec.5, %class.vec.5* %5, i32 0, i32 0
  %40 = load i32*, i32** %39, align 8
  %41 = bitcast i32* %40 to i8*
  %42 = getelementptr inbounds %class.vec.5, %class.vec.5* %5, i32 0, i32 2
  %43 = load i32, i32* %42, align 4
  %44 = sext i32 %43 to i64
  %45 = mul i64 %44, 4
  %46 = call i8* @realloc(i8* %41, i64 %45) #12
  %47 = bitcast i8* %46 to i32*
  %48 = getelementptr inbounds %class.vec.5, %class.vec.5* %5, i32 0, i32 0
  store i32* %47, i32** %48, align 8
  br label %49

49:                                               ; preds = %38, %10
  ret void
}

; Function Attrs: noinline nounwind uwtable
define linkonce_odr dso_local dereferenceable(4) i32* @_ZNK3vecIiEixEi(%class.vec.5* %0, i32 %1) #1 comdat align 2 {
  %3 = alloca %class.vec.5*, align 8
  %4 = alloca i32, align 4
  store %class.vec.5* %0, %class.vec.5** %3, align 8
  store i32 %1, i32* %4, align 4
  %5 = load %class.vec.5*, %class.vec.5** %3, align 8
  %6 = getelementptr inbounds %class.vec.5, %class.vec.5* %5, i32 0, i32 0
  %7 = load i32*, i32** %6, align 8
  %8 = load i32, i32* %4, align 4
  %9 = sext i32 %8 to i64
  %10 = getelementptr inbounds i32, i32* %7, i64 %9
  ret i32* %10
}

; Function Attrs: noinline nounwind uwtable
define linkonce_odr dso_local i32 @_ZN3vecIdE4imaxEii(i32 %0, i32 %1) #1 comdat align 2 {
  %3 = alloca i32, align 4
  %4 = alloca i32, align 4
  %5 = alloca i32, align 4
  store i32 %0, i32* %3, align 4
  store i32 %1, i32* %4, align 4
  %6 = load i32, i32* %4, align 4
  %7 = load i32, i32* %3, align 4
  %8 = sub nsw i32 %6, %7
  %9 = ashr i32 %8, 31
  store i32 %9, i32* %5, align 4
  %10 = load i32, i32* %3, align 4
  %11 = load i32, i32* %5, align 4
  %12 = and i32 %10, %11
  %13 = load i32, i32* %4, align 4
  %14 = load i32, i32* %5, align 4
  %15 = xor i32 %14, -1
  %16 = and i32 %13, %15
  %17 = add nsw i32 %12, %16
  ret i32 %17
}

; Function Attrs: noinline nounwind uwtable
define linkonce_odr dso_local i32 @_ZN3vecIiE4imaxEii(i32 %0, i32 %1) #1 comdat align 2 {
  %3 = alloca i32, align 4
  %4 = alloca i32, align 4
  %5 = alloca i32, align 4
  store i32 %0, i32* %3, align 4
  store i32 %1, i32* %4, align 4
  %6 = load i32, i32* %4, align 4
  %7 = load i32, i32* %3, align 4
  %8 = sub nsw i32 %6, %7
  %9 = ashr i32 %8, 31
  store i32 %9, i32* %5, align 4
  %10 = load i32, i32* %3, align 4
  %11 = load i32, i32* %5, align 4
  %12 = and i32 %10, %11
  %13 = load i32, i32* %4, align 4
  %14 = load i32, i32* %5, align 4
  %15 = xor i32 %14, -1
  %16 = and i32 %13, %15
  %17 = add nsw i32 %12, %16
  ret i32 %17
}

; Function Attrs: noinline nounwind uwtable
define linkonce_odr dso_local i32 @_ZN3vecIcE4imaxEii(i32 %0, i32 %1) #1 comdat align 2 {
  %3 = alloca i32, align 4
  %4 = alloca i32, align 4
  %5 = alloca i32, align 4
  store i32 %0, i32* %3, align 4
  store i32 %1, i32* %4, align 4
  %6 = load i32, i32* %4, align 4
  %7 = load i32, i32* %3, align 4
  %8 = sub nsw i32 %6, %7
  %9 = ashr i32 %8, 31
  store i32 %9, i32* %5, align 4
  %10 = load i32, i32* %3, align 4
  %11 = load i32, i32* %5, align 4
  %12 = and i32 %10, %11
  %13 = load i32, i32* %4, align 4
  %14 = load i32, i32* %5, align 4
  %15 = xor i32 %14, -1
  %16 = and i32 %13, %15
  %17 = add nsw i32 %12, %16
  ret i32 %17
}

; Function Attrs: noinline nounwind uwtable
define linkonce_odr dso_local i32 @_ZNK5lbool5toIntEv(%class.lbool* %0) #1 comdat align 2 {
  %2 = alloca %class.lbool*, align 8
  store %class.lbool* %0, %class.lbool** %2, align 8
  %3 = load %class.lbool*, %class.lbool** %2, align 8
  %4 = getelementptr inbounds %class.lbool, %class.lbool* %3, i32 0, i32 0
  %5 = load i8, i8* %4, align 1
  %6 = sext i8 %5 to i32
  ret i32 %6
}

; Function Attrs: noinline nounwind uwtable
define linkonce_odr dso_local i32 @_ZN3vecIP6ClauseE4imaxEii(i32 %0, i32 %1) #1 comdat align 2 {
  %3 = alloca i32, align 4
  %4 = alloca i32, align 4
  %5 = alloca i32, align 4
  store i32 %0, i32* %3, align 4
  store i32 %1, i32* %4, align 4
  %6 = load i32, i32* %4, align 4
  %7 = load i32, i32* %3, align 4
  %8 = sub nsw i32 %6, %7
  %9 = ashr i32 %8, 31
  store i32 %9, i32* %5, align 4
  %10 = load i32, i32* %3, align 4
  %11 = load i32, i32* %5, align 4
  %12 = and i32 %10, %11
  %13 = load i32, i32* %4, align 4
  %14 = load i32, i32* %5, align 4
  %15 = xor i32 %14, -1
  %16 = and i32 %13, %15
  %17 = add nsw i32 %12, %16
  ret i32 %17
}

; Function Attrs: noinline nounwind uwtable
define linkonce_odr dso_local i32 @_ZN3vecIS_IP6ClauseEE4imaxEii(i32 %0, i32 %1) #1 comdat align 2 {
  %3 = alloca i32, align 4
  %4 = alloca i32, align 4
  %5 = alloca i32, align 4
  store i32 %0, i32* %3, align 4
  store i32 %1, i32* %4, align 4
  %6 = load i32, i32* %4, align 4
  %7 = load i32, i32* %3, align 4
  %8 = sub nsw i32 %6, %7
  %9 = ashr i32 %8, 31
  store i32 %9, i32* %5, align 4
  %10 = load i32, i32* %3, align 4
  %11 = load i32, i32* %5, align 4
  %12 = and i32 %10, %11
  %13 = load i32, i32* %4, align 4
  %14 = load i32, i32* %5, align 4
  %15 = xor i32 %14, -1
  %16 = and i32 %13, %15
  %17 = add nsw i32 %12, %16
  ret i32 %17
}

; Function Attrs: noinline uwtable
define dso_local zeroext i1 @_ZN6Solver9addClauseER3vecI3LitE(%class.Solver* %0, %class.vec.0* dereferenceable(16) %1) #0 align 2 {
  %3 = alloca i1, align 1
  %4 = alloca %class.Solver*, align 8
  %5 = alloca %class.vec.0*, align 8
  %6 = alloca %class.Lit, align 4
  %7 = alloca i32, align 4
  %8 = alloca i32, align 4
  %9 = alloca %class.lbool, align 1
  %10 = alloca %class.Lit, align 4
  %11 = alloca %class.lbool, align 1
  %12 = alloca %class.Lit, align 4
  %13 = alloca %class.Lit, align 4
  %14 = alloca %class.lbool, align 1
  %15 = alloca %class.Lit, align 4
  %16 = alloca %class.lbool, align 1
  %17 = alloca %class.Lit, align 4
  %18 = alloca %class.lbool, align 1
  %19 = alloca %class.Lit, align 4
  %20 = alloca %class.lbool, align 1
  %21 = alloca %class.Lit, align 4
  %22 = alloca %class.Clause*, align 8
  store %class.Solver* %0, %class.Solver** %4, align 8
  store %class.vec.0* %1, %class.vec.0** %5, align 8
  %23 = load %class.Solver*, %class.Solver** %4, align 8
  %24 = call i32 @_ZNK6Solver13decisionLevelEv(%class.Solver* %23)
  %25 = icmp eq i32 %24, 0
  br i1 %25, label %26, label %27

26:                                               ; preds = %2
  br label %29

27:                                               ; preds = %2
  call void @__assert_fail(i8* getelementptr inbounds ([21 x i8], [21 x i8]* @.str.56, i64 0, i64 0), i8* getelementptr inbounds ([11 x i8], [11 x i8]* @.str.5.57, i64 0, i64 0), i32 94, i8* getelementptr inbounds ([35 x i8], [35 x i8]* @__PRETTY_FUNCTION__._ZN6Solver9addClauseER3vecI3LitE, i64 0, i64 0)) #15
  unreachable

28:                                               ; No predecessors!
  br label %29

29:                                               ; preds = %28, %26
  %30 = getelementptr inbounds %class.Solver, %class.Solver* %23, i32 0, i32 21
  %31 = load i8, i8* %30, align 8
  %32 = trunc i8 %31 to i1
  br i1 %32, label %34, label %33

33:                                               ; preds = %29
  store i1 false, i1* %3, align 1
  br label %163

34:                                               ; preds = %29
  %35 = load %class.vec.0*, %class.vec.0** %5, align 8
  call void @_Z4sortI3LitEvR3vecIT_E(%class.vec.0* dereferenceable(16) %35)
  call void @_ZN3LitC2Ev(%class.Lit* %6)
  store i32 0, i32* %8, align 4
  store i32 0, i32* %7, align 4
  %36 = bitcast %class.Lit* %6 to i8*
  call void @llvm.memcpy.p0i8.p0i8.i64(i8* align 4 %36, i8* align 4 bitcast (%class.Lit* @_ZL9lit_Undef.14 to i8*), i64 4, i1 false)
  br label %37

37:                                               ; preds = %111, %34
  %38 = load i32, i32* %7, align 4
  %39 = load %class.vec.0*, %class.vec.0** %5, align 8
  %40 = call i32 @_ZNK3vecI3LitE4sizeEv(%class.vec.0* %39)
  %41 = icmp slt i32 %38, %40
  br i1 %41, label %42, label %114

42:                                               ; preds = %37
  %43 = load %class.vec.0*, %class.vec.0** %5, align 8
  %44 = load i32, i32* %7, align 4
  %45 = call dereferenceable(4) %class.Lit* @_ZN3vecI3LitEixEi(%class.vec.0* %43, i32 %44)
  %46 = bitcast %class.Lit* %10 to i8*
  %47 = bitcast %class.Lit* %45 to i8*
  call void @llvm.memcpy.p0i8.p0i8.i64(i8* align 4 %46, i8* align 4 %47, i64 4, i1 false)
  %48 = getelementptr inbounds %class.Lit, %class.Lit* %10, i32 0, i32 0
  %49 = load i32, i32* %48, align 4
  %50 = call i8 @_ZNK6Solver5valueE3Lit(%class.Solver* %23, i32 %49)
  %51 = getelementptr inbounds %class.lbool, %class.lbool* %9, i32 0, i32 0
  store i8 %50, i8* %51, align 1
  %52 = bitcast %class.lbool* %11 to i8*
  call void @llvm.memcpy.p0i8.p0i8.i64(i8* align 1 %52, i8* align 1 getelementptr inbounds (%class.lbool, %class.lbool* @_ZL6l_True.12, i32 0, i32 0), i64 1, i1 false)
  %53 = getelementptr inbounds %class.lbool, %class.lbool* %11, i32 0, i32 0
  %54 = load i8, i8* %53, align 1
  %55 = call zeroext i1 @_ZNK5lbooleqES_(%class.lbool* %9, i8 %54)
  br i1 %55, label %69, label %56

56:                                               ; preds = %42
  %57 = load %class.vec.0*, %class.vec.0** %5, align 8
  %58 = load i32, i32* %7, align 4
  %59 = call dereferenceable(4) %class.Lit* @_ZN3vecI3LitEixEi(%class.vec.0* %57, i32 %58)
  %60 = bitcast %class.Lit* %13 to i8*
  %61 = bitcast %class.Lit* %6 to i8*
  call void @llvm.memcpy.p0i8.p0i8.i64(i8* align 4 %60, i8* align 4 %61, i64 4, i1 false)
  %62 = getelementptr inbounds %class.Lit, %class.Lit* %13, i32 0, i32 0
  %63 = load i32, i32* %62, align 4
  %64 = call i32 @_Zco3Lit(i32 %63)
  %65 = getelementptr inbounds %class.Lit, %class.Lit* %12, i32 0, i32 0
  store i32 %64, i32* %65, align 4
  %66 = getelementptr inbounds %class.Lit, %class.Lit* %12, i32 0, i32 0
  %67 = load i32, i32* %66, align 4
  %68 = call zeroext i1 @_ZNK3LiteqES_(%class.Lit* %59, i32 %67)
  br label %69

69:                                               ; preds = %56, %42
  %70 = phi i1 [ true, %42 ], [ %68, %56 ]
  br i1 %70, label %71, label %72

71:                                               ; preds = %69
  store i1 true, i1* %3, align 1
  br label %163

72:                                               ; preds = %69
  %73 = load %class.vec.0*, %class.vec.0** %5, align 8
  %74 = load i32, i32* %7, align 4
  %75 = call dereferenceable(4) %class.Lit* @_ZN3vecI3LitEixEi(%class.vec.0* %73, i32 %74)
  %76 = bitcast %class.Lit* %15 to i8*
  %77 = bitcast %class.Lit* %75 to i8*
  call void @llvm.memcpy.p0i8.p0i8.i64(i8* align 4 %76, i8* align 4 %77, i64 4, i1 false)
  %78 = getelementptr inbounds %class.Lit, %class.Lit* %15, i32 0, i32 0
  %79 = load i32, i32* %78, align 4
  %80 = call i8 @_ZNK6Solver5valueE3Lit(%class.Solver* %23, i32 %79)
  %81 = getelementptr inbounds %class.lbool, %class.lbool* %14, i32 0, i32 0
  store i8 %80, i8* %81, align 1
  %82 = bitcast %class.lbool* %16 to i8*
  call void @llvm.memcpy.p0i8.p0i8.i64(i8* align 1 %82, i8* align 1 getelementptr inbounds (%class.lbool, %class.lbool* @_ZL7l_False.11, i32 0, i32 0), i64 1, i1 false)
  %83 = getelementptr inbounds %class.lbool, %class.lbool* %16, i32 0, i32 0
  %84 = load i8, i8* %83, align 1
  %85 = call zeroext i1 @_ZNK5lboolneES_(%class.lbool* %14, i8 %84)
  br i1 %85, label %86, label %95

86:                                               ; preds = %72
  %87 = load %class.vec.0*, %class.vec.0** %5, align 8
  %88 = load i32, i32* %7, align 4
  %89 = call dereferenceable(4) %class.Lit* @_ZN3vecI3LitEixEi(%class.vec.0* %87, i32 %88)
  %90 = bitcast %class.Lit* %17 to i8*
  %91 = bitcast %class.Lit* %6 to i8*
  call void @llvm.memcpy.p0i8.p0i8.i64(i8* align 4 %90, i8* align 4 %91, i64 4, i1 false)
  %92 = getelementptr inbounds %class.Lit, %class.Lit* %17, i32 0, i32 0
  %93 = load i32, i32* %92, align 4
  %94 = call zeroext i1 @_ZNK3LitneES_(%class.Lit* %89, i32 %93)
  br label %95

95:                                               ; preds = %86, %72
  %96 = phi i1 [ false, %72 ], [ %94, %86 ]
  br i1 %96, label %97, label %109

97:                                               ; preds = %95
  %98 = load %class.vec.0*, %class.vec.0** %5, align 8
  %99 = load i32, i32* %7, align 4
  %100 = call dereferenceable(4) %class.Lit* @_ZN3vecI3LitEixEi(%class.vec.0* %98, i32 %99)
  %101 = bitcast %class.Lit* %6 to i8*
  %102 = bitcast %class.Lit* %100 to i8*
  call void @llvm.memcpy.p0i8.p0i8.i64(i8* align 4 %101, i8* align 4 %102, i64 4, i1 false)
  %103 = load %class.vec.0*, %class.vec.0** %5, align 8
  %104 = load i32, i32* %8, align 4
  %105 = add nsw i32 %104, 1
  store i32 %105, i32* %8, align 4
  %106 = call dereferenceable(4) %class.Lit* @_ZN3vecI3LitEixEi(%class.vec.0* %103, i32 %104)
  %107 = bitcast %class.Lit* %106 to i8*
  %108 = bitcast %class.Lit* %6 to i8*
  call void @llvm.memcpy.p0i8.p0i8.i64(i8* align 4 %107, i8* align 4 %108, i64 4, i1 false)
  br label %109

109:                                              ; preds = %97, %95
  br label %110

110:                                              ; preds = %109
  br label %111

111:                                              ; preds = %110
  %112 = load i32, i32* %7, align 4
  %113 = add nsw i32 %112, 1
  store i32 %113, i32* %7, align 4
  br label %37

114:                                              ; preds = %37
  %115 = load %class.vec.0*, %class.vec.0** %5, align 8
  %116 = load i32, i32* %7, align 4
  %117 = load i32, i32* %8, align 4
  %118 = sub nsw i32 %116, %117
  call void @_ZN3vecI3LitE6shrinkEi(%class.vec.0* %115, i32 %118)
  br label %119

119:                                              ; preds = %114
  %120 = load %class.vec.0*, %class.vec.0** %5, align 8
  %121 = call i32 @_ZNK3vecI3LitE4sizeEv(%class.vec.0* %120)
  %122 = icmp eq i32 %121, 0
  br i1 %122, label %123, label %125

123:                                              ; preds = %119
  %124 = getelementptr inbounds %class.Solver, %class.Solver* %23, i32 0, i32 21
  store i8 0, i8* %124, align 8
  store i1 false, i1* %3, align 1
  br label %163

125:                                              ; preds = %119
  %126 = load %class.vec.0*, %class.vec.0** %5, align 8
  %127 = call i32 @_ZNK3vecI3LitE4sizeEv(%class.vec.0* %126)
  %128 = icmp eq i32 %127, 1
  br i1 %128, label %129, label %156

129:                                              ; preds = %125
  %130 = load %class.vec.0*, %class.vec.0** %5, align 8
  %131 = call dereferenceable(4) %class.Lit* @_ZN3vecI3LitEixEi(%class.vec.0* %130, i32 0)
  %132 = bitcast %class.Lit* %19 to i8*
  %133 = bitcast %class.Lit* %131 to i8*
  call void @llvm.memcpy.p0i8.p0i8.i64(i8* align 4 %132, i8* align 4 %133, i64 4, i1 false)
  %134 = getelementptr inbounds %class.Lit, %class.Lit* %19, i32 0, i32 0
  %135 = load i32, i32* %134, align 4
  %136 = call i8 @_ZNK6Solver5valueE3Lit(%class.Solver* %23, i32 %135)
  %137 = getelementptr inbounds %class.lbool, %class.lbool* %18, i32 0, i32 0
  store i8 %136, i8* %137, align 1
  %138 = bitcast %class.lbool* %20 to i8*
  call void @llvm.memcpy.p0i8.p0i8.i64(i8* align 1 %138, i8* align 1 getelementptr inbounds (%class.lbool, %class.lbool* @_ZL7l_Undef.10, i32 0, i32 0), i64 1, i1 false)
  %139 = getelementptr inbounds %class.lbool, %class.lbool* %20, i32 0, i32 0
  %140 = load i8, i8* %139, align 1
  %141 = call zeroext i1 @_ZNK5lbooleqES_(%class.lbool* %18, i8 %140)
  br i1 %141, label %142, label %143

142:                                              ; preds = %129
  br label %145

143:                                              ; preds = %129
  call void @__assert_fail(i8* getelementptr inbounds ([24 x i8], [24 x i8]* @.str.6.58, i64 0, i64 0), i8* getelementptr inbounds ([11 x i8], [11 x i8]* @.str.5.57, i64 0, i64 0), i32 113, i8* getelementptr inbounds ([35 x i8], [35 x i8]* @__PRETTY_FUNCTION__._ZN6Solver9addClauseER3vecI3LitE, i64 0, i64 0)) #15
  unreachable

144:                                              ; No predecessors!
  br label %145

145:                                              ; preds = %144, %142
  %146 = load %class.vec.0*, %class.vec.0** %5, align 8
  %147 = call dereferenceable(4) %class.Lit* @_ZN3vecI3LitEixEi(%class.vec.0* %146, i32 0)
  %148 = bitcast %class.Lit* %21 to i8*
  %149 = bitcast %class.Lit* %147 to i8*
  call void @llvm.memcpy.p0i8.p0i8.i64(i8* align 4 %148, i8* align 4 %149, i64 4, i1 false)
  %150 = getelementptr inbounds %class.Lit, %class.Lit* %21, i32 0, i32 0
  %151 = load i32, i32* %150, align 4
  call void @_ZN6Solver16uncheckedEnqueueE3LitP6Clause(%class.Solver* %23, i32 %151, %class.Clause* null)
  %152 = call %class.Clause* @_ZN6Solver9propagateEv(%class.Solver* %23)
  %153 = icmp eq %class.Clause* %152, null
  %154 = getelementptr inbounds %class.Solver, %class.Solver* %23, i32 0, i32 21
  %155 = zext i1 %153 to i8
  store i8 %155, i8* %154, align 8
  store i1 %153, i1* %3, align 1
  br label %163

156:                                              ; preds = %125
  %157 = load %class.vec.0*, %class.vec.0** %5, align 8
  %158 = call %class.Clause* @_Z10Clause_newI3vecI3LitEEP6ClauseRKT_b(%class.vec.0* dereferenceable(16) %157, i1 zeroext false)
  store %class.Clause* %158, %class.Clause** %22, align 8
  %159 = getelementptr inbounds %class.Solver, %class.Solver* %23, i32 0, i32 22
  call void @_ZN3vecIP6ClauseE4pushERKS1_(%class.vec.1* %159, %class.Clause** dereferenceable(8) %22)
  %160 = load %class.Clause*, %class.Clause** %22, align 8
  call void @_ZN6Solver12attachClauseER6Clause(%class.Solver* %23, %class.Clause* dereferenceable(8) %160)
  br label %161

161:                                              ; preds = %156
  br label %162

162:                                              ; preds = %161
  store i1 true, i1* %3, align 1
  br label %163

163:                                              ; preds = %162, %145, %123, %71, %33
  %164 = load i1, i1* %3, align 1
  ret i1 %164
}

; Function Attrs: noinline uwtable
define linkonce_odr dso_local i32 @_ZNK6Solver13decisionLevelEv(%class.Solver* %0) #0 comdat align 2 {
  %2 = alloca %class.Solver*, align 8
  store %class.Solver* %0, %class.Solver** %2, align 8
  %3 = load %class.Solver*, %class.Solver** %2, align 8
  %4 = getelementptr inbounds %class.Solver, %class.Solver* %3, i32 0, i32 32
  %5 = call i32 @_ZNK3vecIiE4sizeEv(%class.vec.5* %4)
  ret i32 %5
}

; Function Attrs: noinline uwtable
define linkonce_odr dso_local void @_Z4sortI3LitEvR3vecIT_E(%class.vec.0* dereferenceable(16) %0) #0 comdat {
  %2 = alloca %class.vec.0*, align 8
  %3 = alloca %class.lbool, align 1
  store %class.vec.0* %0, %class.vec.0** %2, align 8
  %4 = load %class.vec.0*, %class.vec.0** %2, align 8
  call void @_Z4sortI3Lit16LessThan_defaultIS0_EEvR3vecIT_ET0_(%class.vec.0* dereferenceable(16) %4)
  ret void
}

; Function Attrs: noinline nounwind uwtable
define linkonce_odr dso_local i32 @_ZNK3vecI3LitE4sizeEv(%class.vec.0* %0) #1 comdat align 2 {
  %2 = alloca %class.vec.0*, align 8
  store %class.vec.0* %0, %class.vec.0** %2, align 8
  %3 = load %class.vec.0*, %class.vec.0** %2, align 8
  %4 = getelementptr inbounds %class.vec.0, %class.vec.0* %3, i32 0, i32 1
  %5 = load i32, i32* %4, align 8
  ret i32 %5
}

; Function Attrs: noinline nounwind uwtable
define linkonce_odr dso_local dereferenceable(4) %class.Lit* @_ZN3vecI3LitEixEi(%class.vec.0* %0, i32 %1) #1 comdat align 2 {
  %3 = alloca %class.vec.0*, align 8
  %4 = alloca i32, align 4
  store %class.vec.0* %0, %class.vec.0** %3, align 8
  store i32 %1, i32* %4, align 4
  %5 = load %class.vec.0*, %class.vec.0** %3, align 8
  %6 = getelementptr inbounds %class.vec.0, %class.vec.0* %5, i32 0, i32 0
  %7 = load %class.Lit*, %class.Lit** %6, align 8
  %8 = load i32, i32* %4, align 4
  %9 = sext i32 %8 to i64
  %10 = getelementptr inbounds %class.Lit, %class.Lit* %7, i64 %9
  ret %class.Lit* %10
}

; Function Attrs: noinline uwtable
define linkonce_odr dso_local i8 @_ZNK6Solver5valueE3Lit(%class.Solver* %0, i32 %1) #0 comdat align 2 {
  %3 = alloca %class.lbool, align 1
  %4 = alloca %class.Lit, align 4
  %5 = alloca %class.Solver*, align 8
  %6 = alloca %class.lbool, align 1
  %7 = alloca %class.Lit, align 4
  %8 = alloca %class.Lit, align 4
  %9 = getelementptr inbounds %class.Lit, %class.Lit* %4, i32 0, i32 0
  store i32 %1, i32* %9, align 4
  store %class.Solver* %0, %class.Solver** %5, align 8
  %10 = load %class.Solver*, %class.Solver** %5, align 8
  %11 = getelementptr inbounds %class.Solver, %class.Solver* %10, i32 0, i32 28
  %12 = bitcast %class.Lit* %7 to i8*
  %13 = bitcast %class.Lit* %4 to i8*
  call void @llvm.memcpy.p0i8.p0i8.i64(i8* align 4 %12, i8* align 4 %13, i64 4, i1 false)
  %14 = getelementptr inbounds %class.Lit, %class.Lit* %7, i32 0, i32 0
  %15 = load i32, i32* %14, align 4
  %16 = call i32 @_Z3var3Lit(i32 %15)
  %17 = call dereferenceable(1) i8* @_ZNK3vecIcEixEi(%class.vec.4* %11, i32 %16)
  %18 = load i8, i8* %17, align 1
  %19 = sext i8 %18 to i32
  %20 = call i8 @_Z7toLbooli(i32 %19)
  %21 = getelementptr inbounds %class.lbool, %class.lbool* %6, i32 0, i32 0
  store i8 %20, i8* %21, align 1
  %22 = bitcast %class.Lit* %8 to i8*
  %23 = bitcast %class.Lit* %4 to i8*
  call void @llvm.memcpy.p0i8.p0i8.i64(i8* align 4 %22, i8* align 4 %23, i64 4, i1 false)
  %24 = getelementptr inbounds %class.Lit, %class.Lit* %8, i32 0, i32 0
  %25 = load i32, i32* %24, align 4
  %26 = call zeroext i1 @_Z4sign3Lit(i32 %25)
  %27 = call i8 @_ZNK5lbooleoEb(%class.lbool* %6, i1 zeroext %26)
  %28 = getelementptr inbounds %class.lbool, %class.lbool* %3, i32 0, i32 0
  store i8 %27, i8* %28, align 1
  %29 = getelementptr inbounds %class.lbool, %class.lbool* %3, i32 0, i32 0
  %30 = load i8, i8* %29, align 1
  ret i8 %30
}

; Function Attrs: noinline nounwind uwtable
define linkonce_odr dso_local zeroext i1 @_ZNK3LiteqES_(%class.Lit* %0, i32 %1) #1 comdat align 2 {
  %3 = alloca %class.Lit, align 4
  %4 = alloca %class.Lit*, align 8
  %5 = getelementptr inbounds %class.Lit, %class.Lit* %3, i32 0, i32 0
  store i32 %1, i32* %5, align 4
  store %class.Lit* %0, %class.Lit** %4, align 8
  %6 = load %class.Lit*, %class.Lit** %4, align 8
  %7 = getelementptr inbounds %class.Lit, %class.Lit* %6, i32 0, i32 0
  %8 = load i32, i32* %7, align 4
  %9 = getelementptr inbounds %class.Lit, %class.Lit* %3, i32 0, i32 0
  %10 = load i32, i32* %9, align 4
  %11 = icmp eq i32 %8, %10
  ret i1 %11
}

; Function Attrs: noinline nounwind uwtable
define linkonce_odr dso_local zeroext i1 @_ZNK3LitneES_(%class.Lit* %0, i32 %1) #1 comdat align 2 {
  %3 = alloca %class.Lit, align 4
  %4 = alloca %class.Lit*, align 8
  %5 = getelementptr inbounds %class.Lit, %class.Lit* %3, i32 0, i32 0
  store i32 %1, i32* %5, align 4
  store %class.Lit* %0, %class.Lit** %4, align 8
  %6 = load %class.Lit*, %class.Lit** %4, align 8
  %7 = getelementptr inbounds %class.Lit, %class.Lit* %6, i32 0, i32 0
  %8 = load i32, i32* %7, align 4
  %9 = getelementptr inbounds %class.Lit, %class.Lit* %3, i32 0, i32 0
  %10 = load i32, i32* %9, align 4
  %11 = icmp ne i32 %8, %10
  ret i1 %11
}

; Function Attrs: noinline nounwind uwtable
define linkonce_odr dso_local void @_ZN3vecI3LitE6shrinkEi(%class.vec.0* %0, i32 %1) #1 comdat align 2 {
  %3 = alloca %class.vec.0*, align 8
  %4 = alloca i32, align 4
  %5 = alloca i32, align 4
  store %class.vec.0* %0, %class.vec.0** %3, align 8
  store i32 %1, i32* %4, align 4
  %6 = load %class.vec.0*, %class.vec.0** %3, align 8
  %7 = load i32, i32* %4, align 4
  %8 = getelementptr inbounds %class.vec.0, %class.vec.0* %6, i32 0, i32 1
  %9 = load i32, i32* %8, align 8
  %10 = icmp sle i32 %7, %9
  br i1 %10, label %11, label %12

11:                                               ; preds = %2
  br label %14

12:                                               ; preds = %2
  call void @__assert_fail(i8* getelementptr inbounds ([13 x i8], [13 x i8]* @.str.30.61, i64 0, i64 0), i8* getelementptr inbounds ([8 x i8], [8 x i8]* @.str.31.62, i64 0, i64 0), i32 72, i8* getelementptr inbounds ([37 x i8], [37 x i8]* @__PRETTY_FUNCTION__._ZN3vecI3LitE6shrinkEi, i64 0, i64 0)) #15
  unreachable

13:                                               ; No predecessors!
  br label %14

14:                                               ; preds = %13, %11
  store i32 0, i32* %5, align 4
  br label %15

15:                                               ; preds = %29, %14
  %16 = load i32, i32* %5, align 4
  %17 = load i32, i32* %4, align 4
  %18 = icmp slt i32 %16, %17
  br i1 %18, label %19, label %32

19:                                               ; preds = %15
  %20 = getelementptr inbounds %class.vec.0, %class.vec.0* %6, i32 0, i32 1
  %21 = load i32, i32* %20, align 8
  %22 = add nsw i32 %21, -1
  store i32 %22, i32* %20, align 8
  %23 = getelementptr inbounds %class.vec.0, %class.vec.0* %6, i32 0, i32 0
  %24 = load %class.Lit*, %class.Lit** %23, align 8
  %25 = getelementptr inbounds %class.vec.0, %class.vec.0* %6, i32 0, i32 1
  %26 = load i32, i32* %25, align 8
  %27 = sext i32 %26 to i64
  %28 = getelementptr inbounds %class.Lit, %class.Lit* %24, i64 %27
  br label %29

29:                                               ; preds = %19
  %30 = load i32, i32* %5, align 4
  %31 = add nsw i32 %30, 1
  store i32 %31, i32* %5, align 4
  br label %15

32:                                               ; preds = %15
  ret void
}

; Function Attrs: noinline uwtable
define dso_local void @_ZN6Solver16uncheckedEnqueueE3LitP6Clause(%class.Solver* %0, i32 %1, %class.Clause* %2) #0 align 2 {
  %4 = alloca %class.Lit, align 4
  %5 = alloca %class.Solver*, align 8
  %6 = alloca %class.Clause*, align 8
  %7 = alloca %class.lbool, align 1
  %8 = alloca %class.Lit, align 4
  %9 = alloca %class.lbool, align 1
  %10 = alloca %class.lbool, align 1
  %11 = alloca %class.Lit, align 4
  %12 = alloca %class.Lit, align 4
  %13 = alloca %class.Lit, align 4
  %14 = alloca %class.Lit, align 4
  %15 = getelementptr inbounds %class.Lit, %class.Lit* %4, i32 0, i32 0
  store i32 %1, i32* %15, align 4
  store %class.Solver* %0, %class.Solver** %5, align 8
  store %class.Clause* %2, %class.Clause** %6, align 8
  %16 = load %class.Solver*, %class.Solver** %5, align 8
  %17 = bitcast %class.Lit* %8 to i8*
  %18 = bitcast %class.Lit* %4 to i8*
  call void @llvm.memcpy.p0i8.p0i8.i64(i8* align 4 %17, i8* align 4 %18, i64 4, i1 false)
  %19 = getelementptr inbounds %class.Lit, %class.Lit* %8, i32 0, i32 0
  %20 = load i32, i32* %19, align 4
  %21 = call i8 @_ZNK6Solver5valueE3Lit(%class.Solver* %16, i32 %20)
  %22 = getelementptr inbounds %class.lbool, %class.lbool* %7, i32 0, i32 0
  store i8 %21, i8* %22, align 1
  %23 = bitcast %class.lbool* %9 to i8*
  call void @llvm.memcpy.p0i8.p0i8.i64(i8* align 1 %23, i8* align 1 getelementptr inbounds (%class.lbool, %class.lbool* @_ZL7l_Undef.10, i32 0, i32 0), i64 1, i1 false)
  %24 = getelementptr inbounds %class.lbool, %class.lbool* %9, i32 0, i32 0
  %25 = load i8, i8* %24, align 1
  %26 = call zeroext i1 @_ZNK5lbooleqES_(%class.lbool* %7, i8 %25)
  br i1 %26, label %27, label %28

27:                                               ; preds = %3
  br label %30

28:                                               ; preds = %3
  call void @__assert_fail(i8* getelementptr inbounds ([20 x i8], [20 x i8]* @.str.14.63, i64 0, i64 0), i8* getelementptr inbounds ([11 x i8], [11 x i8]* @.str.5.57, i64 0, i64 0), i32 383, i8* getelementptr inbounds ([45 x i8], [45 x i8]* @__PRETTY_FUNCTION__._ZN6Solver16uncheckedEnqueueE3LitP6Clause, i64 0, i64 0)) #15
  unreachable

29:                                               ; No predecessors!
  br label %30

30:                                               ; preds = %29, %27
  %31 = bitcast %class.Lit* %11 to i8*
  %32 = bitcast %class.Lit* %4 to i8*
  call void @llvm.memcpy.p0i8.p0i8.i64(i8* align 4 %31, i8* align 4 %32, i64 4, i1 false)
  %33 = getelementptr inbounds %class.Lit, %class.Lit* %11, i32 0, i32 0
  %34 = load i32, i32* %33, align 4
  %35 = call zeroext i1 @_Z4sign3Lit(i32 %34)
  %36 = xor i1 %35, true
  call void @_ZN5lboolC2Eb(%class.lbool* %10, i1 zeroext %36)
  %37 = getelementptr inbounds %class.lbool, %class.lbool* %10, i32 0, i32 0
  %38 = load i8, i8* %37, align 1
  %39 = call i32 @_Z5toInt5lbool(i8 %38)
  %40 = trunc i32 %39 to i8
  %41 = getelementptr inbounds %class.Solver, %class.Solver* %16, i32 0, i32 28
  %42 = bitcast %class.Lit* %12 to i8*
  %43 = bitcast %class.Lit* %4 to i8*
  call void @llvm.memcpy.p0i8.p0i8.i64(i8* align 4 %42, i8* align 4 %43, i64 4, i1 false)
  %44 = getelementptr inbounds %class.Lit, %class.Lit* %12, i32 0, i32 0
  %45 = load i32, i32* %44, align 4
  %46 = call i32 @_Z3var3Lit(i32 %45)
  %47 = call dereferenceable(1) i8* @_ZN3vecIcEixEi(%class.vec.4* %41, i32 %46)
  store i8 %40, i8* %47, align 1
  %48 = call i32 @_ZNK6Solver13decisionLevelEv(%class.Solver* %16)
  %49 = getelementptr inbounds %class.Solver, %class.Solver* %16, i32 0, i32 34
  %50 = bitcast %class.Lit* %13 to i8*
  %51 = bitcast %class.Lit* %4 to i8*
  call void @llvm.memcpy.p0i8.p0i8.i64(i8* align 4 %50, i8* align 4 %51, i64 4, i1 false)
  %52 = getelementptr inbounds %class.Lit, %class.Lit* %13, i32 0, i32 0
  %53 = load i32, i32* %52, align 4
  %54 = call i32 @_Z3var3Lit(i32 %53)
  %55 = call dereferenceable(4) i32* @_ZN3vecIiEixEi(%class.vec.5* %49, i32 %54)
  store i32 %48, i32* %55, align 4
  %56 = load %class.Clause*, %class.Clause** %6, align 8
  %57 = getelementptr inbounds %class.Solver, %class.Solver* %16, i32 0, i32 33
  %58 = bitcast %class.Lit* %14 to i8*
  %59 = bitcast %class.Lit* %4 to i8*
  call void @llvm.memcpy.p0i8.p0i8.i64(i8* align 4 %58, i8* align 4 %59, i64 4, i1 false)
  %60 = getelementptr inbounds %class.Lit, %class.Lit* %14, i32 0, i32 0
  %61 = load i32, i32* %60, align 4
  %62 = call i32 @_Z3var3Lit(i32 %61)
  %63 = call dereferenceable(8) %class.Clause** @_ZN3vecIP6ClauseEixEi(%class.vec.1* %57, i32 %62)
  store %class.Clause* %56, %class.Clause** %63, align 8
  %64 = getelementptr inbounds %class.Solver, %class.Solver* %16, i32 0, i32 31
  call void @_ZN3vecI3LitE4pushERKS0_(%class.vec.0* %64, %class.Lit* dereferenceable(4) %4)
  ret void
}

; Function Attrs: noinline uwtable
define dso_local %class.Clause* @_ZN6Solver9propagateEv(%class.Solver* %0) #0 align 2 {
  %2 = alloca %class.Solver*, align 8
  %3 = alloca %class.Clause*, align 8
  %4 = alloca i32, align 4
  %5 = alloca %class.Lit, align 4
  %6 = alloca %class.vec.1*, align 8
  %7 = alloca %class.Lit, align 4
  %8 = alloca %class.Clause**, align 8
  %9 = alloca %class.Clause**, align 8
  %10 = alloca %class.Clause**, align 8
  %11 = alloca %class.Clause*, align 8
  %12 = alloca %class.Lit, align 4
  %13 = alloca %class.Lit, align 4
  %14 = alloca %class.Lit, align 4
  %15 = alloca %class.Lit, align 4
  %16 = alloca %class.Lit, align 4
  %17 = alloca %class.lbool, align 1
  %18 = alloca %class.Lit, align 4
  %19 = alloca %class.lbool, align 1
  %20 = alloca i32, align 4
  %21 = alloca %class.lbool, align 1
  %22 = alloca %class.Lit, align 4
  %23 = alloca %class.lbool, align 1
  %24 = alloca %class.Lit, align 4
  %25 = alloca %class.Lit, align 4
  %26 = alloca %class.Clause*, align 8
  %27 = alloca %class.lbool, align 1
  %28 = alloca %class.Lit, align 4
  %29 = alloca %class.lbool, align 1
  %30 = alloca %class.Lit, align 4
  store %class.Solver* %0, %class.Solver** %2, align 8
  %31 = load %class.Solver*, %class.Solver** %2, align 8
  store %class.Clause* null, %class.Clause** %3, align 8
  store i32 0, i32* %4, align 4
  br label %32

32:                                               ; preds = %214, %1
  %33 = getelementptr inbounds %class.Solver, %class.Solver* %31, i32 0, i32 35
  %34 = load i32, i32* %33, align 8
  %35 = getelementptr inbounds %class.Solver, %class.Solver* %31, i32 0, i32 31
  %36 = call i32 @_ZNK3vecI3LitE4sizeEv(%class.vec.0* %35)
  %37 = icmp slt i32 %34, %36
  br i1 %37, label %38, label %223

38:                                               ; preds = %32
  %39 = getelementptr inbounds %class.Solver, %class.Solver* %31, i32 0, i32 31
  %40 = getelementptr inbounds %class.Solver, %class.Solver* %31, i32 0, i32 35
  %41 = load i32, i32* %40, align 8
  %42 = add nsw i32 %41, 1
  store i32 %42, i32* %40, align 8
  %43 = call dereferenceable(4) %class.Lit* @_ZN3vecI3LitEixEi(%class.vec.0* %39, i32 %41)
  %44 = bitcast %class.Lit* %5 to i8*
  %45 = bitcast %class.Lit* %43 to i8*
  call void @llvm.memcpy.p0i8.p0i8.i64(i8* align 4 %44, i8* align 4 %45, i64 4, i1 false)
  %46 = getelementptr inbounds %class.Solver, %class.Solver* %31, i32 0, i32 27
  %47 = bitcast %class.Lit* %7 to i8*
  %48 = bitcast %class.Lit* %5 to i8*
  call void @llvm.memcpy.p0i8.p0i8.i64(i8* align 4 %47, i8* align 4 %48, i64 4, i1 false)
  %49 = getelementptr inbounds %class.Lit, %class.Lit* %7, i32 0, i32 0
  %50 = load i32, i32* %49, align 4
  %51 = call i32 @_Z5toInt3Lit(i32 %50)
  %52 = call dereferenceable(16) %class.vec.1* @_ZN3vecIS_IP6ClauseEEixEi(%class.vec.3* %46, i32 %51)
  store %class.vec.1* %52, %class.vec.1** %6, align 8
  %53 = load i32, i32* %4, align 4
  %54 = add nsw i32 %53, 1
  store i32 %54, i32* %4, align 4
  %55 = load %class.vec.1*, %class.vec.1** %6, align 8
  %56 = call %class.Clause** @_ZN3vecIP6ClauseEcvPS1_Ev(%class.vec.1* %55)
  store %class.Clause** %56, %class.Clause*** %9, align 8
  store %class.Clause** %56, %class.Clause*** %8, align 8
  %57 = load %class.Clause**, %class.Clause*** %8, align 8
  %58 = load %class.vec.1*, %class.vec.1** %6, align 8
  %59 = call i32 @_ZNK3vecIP6ClauseE4sizeEv(%class.vec.1* %58)
  %60 = sext i32 %59 to i64
  %61 = getelementptr inbounds %class.Clause*, %class.Clause** %57, i64 %60
  store %class.Clause** %61, %class.Clause*** %10, align 8
  br label %62

62:                                               ; preds = %213, %38
  %63 = load %class.Clause**, %class.Clause*** %8, align 8
  %64 = load %class.Clause**, %class.Clause*** %10, align 8
  %65 = icmp ne %class.Clause** %63, %64
  br i1 %65, label %66, label %214

66:                                               ; preds = %62
  %67 = load %class.Clause**, %class.Clause*** %8, align 8
  %68 = getelementptr inbounds %class.Clause*, %class.Clause** %67, i32 1
  store %class.Clause** %68, %class.Clause*** %8, align 8
  %69 = load %class.Clause*, %class.Clause** %67, align 8
  store %class.Clause* %69, %class.Clause** %11, align 8
  %70 = bitcast %class.Lit* %13 to i8*
  %71 = bitcast %class.Lit* %5 to i8*
  call void @llvm.memcpy.p0i8.p0i8.i64(i8* align 4 %70, i8* align 4 %71, i64 4, i1 false)
  %72 = getelementptr inbounds %class.Lit, %class.Lit* %13, i32 0, i32 0
  %73 = load i32, i32* %72, align 4
  %74 = call i32 @_Zco3Lit(i32 %73)
  %75 = getelementptr inbounds %class.Lit, %class.Lit* %12, i32 0, i32 0
  store i32 %74, i32* %75, align 4
  %76 = load %class.Clause*, %class.Clause** %11, align 8
  %77 = call dereferenceable(4) %class.Lit* @_ZN6ClauseixEi(%class.Clause* %76, i32 0)
  %78 = bitcast %class.Lit* %14 to i8*
  %79 = bitcast %class.Lit* %12 to i8*
  call void @llvm.memcpy.p0i8.p0i8.i64(i8* align 4 %78, i8* align 4 %79, i64 4, i1 false)
  %80 = getelementptr inbounds %class.Lit, %class.Lit* %14, i32 0, i32 0
  %81 = load i32, i32* %80, align 4
  %82 = call zeroext i1 @_ZNK3LiteqES_(%class.Lit* %77, i32 %81)
  br i1 %82, label %83, label %94

83:                                               ; preds = %66
  %84 = load %class.Clause*, %class.Clause** %11, align 8
  %85 = call dereferenceable(4) %class.Lit* @_ZN6ClauseixEi(%class.Clause* %84, i32 1)
  %86 = load %class.Clause*, %class.Clause** %11, align 8
  %87 = call dereferenceable(4) %class.Lit* @_ZN6ClauseixEi(%class.Clause* %86, i32 0)
  %88 = bitcast %class.Lit* %87 to i8*
  %89 = bitcast %class.Lit* %85 to i8*
  call void @llvm.memcpy.p0i8.p0i8.i64(i8* align 4 %88, i8* align 4 %89, i64 4, i1 false)
  %90 = load %class.Clause*, %class.Clause** %11, align 8
  %91 = call dereferenceable(4) %class.Lit* @_ZN6ClauseixEi(%class.Clause* %90, i32 1)
  %92 = bitcast %class.Lit* %91 to i8*
  %93 = bitcast %class.Lit* %12 to i8*
  call void @llvm.memcpy.p0i8.p0i8.i64(i8* align 4 %92, i8* align 4 %93, i64 4, i1 false)
  br label %94

94:                                               ; preds = %83, %66
  %95 = load %class.Clause*, %class.Clause** %11, align 8
  %96 = call dereferenceable(4) %class.Lit* @_ZN6ClauseixEi(%class.Clause* %95, i32 1)
  %97 = bitcast %class.Lit* %15 to i8*
  %98 = bitcast %class.Lit* %12 to i8*
  call void @llvm.memcpy.p0i8.p0i8.i64(i8* align 4 %97, i8* align 4 %98, i64 4, i1 false)
  %99 = getelementptr inbounds %class.Lit, %class.Lit* %15, i32 0, i32 0
  %100 = load i32, i32* %99, align 4
  %101 = call zeroext i1 @_ZNK3LiteqES_(%class.Lit* %96, i32 %100)
  br i1 %101, label %102, label %103

102:                                              ; preds = %94
  br label %105

103:                                              ; preds = %94
  call void @__assert_fail(i8* getelementptr inbounds ([18 x i8], [18 x i8]* @.str.15.60, i64 0, i64 0), i8* getelementptr inbounds ([11 x i8], [11 x i8]* @.str.5.57, i64 0, i64 0), i32 421, i8* getelementptr inbounds ([28 x i8], [28 x i8]* @__PRETTY_FUNCTION__._ZN6Solver9propagateEv, i64 0, i64 0)) #15
  unreachable

104:                                              ; No predecessors!
  br label %105

105:                                              ; preds = %104, %102
  %106 = load %class.Clause*, %class.Clause** %11, align 8
  %107 = call dereferenceable(4) %class.Lit* @_ZN6ClauseixEi(%class.Clause* %106, i32 0)
  %108 = bitcast %class.Lit* %16 to i8*
  %109 = bitcast %class.Lit* %107 to i8*
  call void @llvm.memcpy.p0i8.p0i8.i64(i8* align 4 %108, i8* align 4 %109, i64 4, i1 false)
  %110 = bitcast %class.Lit* %18 to i8*
  %111 = bitcast %class.Lit* %16 to i8*
  call void @llvm.memcpy.p0i8.p0i8.i64(i8* align 4 %110, i8* align 4 %111, i64 4, i1 false)
  %112 = getelementptr inbounds %class.Lit, %class.Lit* %18, i32 0, i32 0
  %113 = load i32, i32* %112, align 4
  %114 = call i8 @_ZNK6Solver5valueE3Lit(%class.Solver* %31, i32 %113)
  %115 = getelementptr inbounds %class.lbool, %class.lbool* %17, i32 0, i32 0
  store i8 %114, i8* %115, align 1
  %116 = bitcast %class.lbool* %19 to i8*
  call void @llvm.memcpy.p0i8.p0i8.i64(i8* align 1 %116, i8* align 1 getelementptr inbounds (%class.lbool, %class.lbool* @_ZL6l_True.12, i32 0, i32 0), i64 1, i1 false)
  %117 = getelementptr inbounds %class.lbool, %class.lbool* %19, i32 0, i32 0
  %118 = load i8, i8* %117, align 1
  %119 = call zeroext i1 @_ZNK5lbooleqES_(%class.lbool* %17, i8 %118)
  br i1 %119, label %120, label %124

120:                                              ; preds = %105
  %121 = load %class.Clause*, %class.Clause** %11, align 8
  %122 = load %class.Clause**, %class.Clause*** %9, align 8
  %123 = getelementptr inbounds %class.Clause*, %class.Clause** %122, i32 1
  store %class.Clause** %123, %class.Clause*** %9, align 8
  store %class.Clause* %121, %class.Clause** %122, align 8
  br label %212

124:                                              ; preds = %105
  store i32 2, i32* %20, align 4
  br label %125

125:                                              ; preds = %172, %124
  %126 = load i32, i32* %20, align 4
  %127 = load %class.Clause*, %class.Clause** %11, align 8
  %128 = call i32 @_ZNK6Clause4sizeEv(%class.Clause* %127)
  %129 = icmp slt i32 %126, %128
  br i1 %129, label %130, label %175

130:                                              ; preds = %125
  %131 = load %class.Clause*, %class.Clause** %11, align 8
  %132 = load i32, i32* %20, align 4
  %133 = call dereferenceable(4) %class.Lit* @_ZN6ClauseixEi(%class.Clause* %131, i32 %132)
  %134 = bitcast %class.Lit* %22 to i8*
  %135 = bitcast %class.Lit* %133 to i8*
  call void @llvm.memcpy.p0i8.p0i8.i64(i8* align 4 %134, i8* align 4 %135, i64 4, i1 false)
  %136 = getelementptr inbounds %class.Lit, %class.Lit* %22, i32 0, i32 0
  %137 = load i32, i32* %136, align 4
  %138 = call i8 @_ZNK6Solver5valueE3Lit(%class.Solver* %31, i32 %137)
  %139 = getelementptr inbounds %class.lbool, %class.lbool* %21, i32 0, i32 0
  store i8 %138, i8* %139, align 1
  %140 = bitcast %class.lbool* %23 to i8*
  call void @llvm.memcpy.p0i8.p0i8.i64(i8* align 1 %140, i8* align 1 getelementptr inbounds (%class.lbool, %class.lbool* @_ZL7l_False.11, i32 0, i32 0), i64 1, i1 false)
  %141 = getelementptr inbounds %class.lbool, %class.lbool* %23, i32 0, i32 0
  %142 = load i8, i8* %141, align 1
  %143 = call zeroext i1 @_ZNK5lboolneES_(%class.lbool* %21, i8 %142)
  br i1 %143, label %144, label %171

144:                                              ; preds = %130
  %145 = load %class.Clause*, %class.Clause** %11, align 8
  %146 = load i32, i32* %20, align 4
  %147 = call dereferenceable(4) %class.Lit* @_ZN6ClauseixEi(%class.Clause* %145, i32 %146)
  %148 = load %class.Clause*, %class.Clause** %11, align 8
  %149 = call dereferenceable(4) %class.Lit* @_ZN6ClauseixEi(%class.Clause* %148, i32 1)
  %150 = bitcast %class.Lit* %149 to i8*
  %151 = bitcast %class.Lit* %147 to i8*
  call void @llvm.memcpy.p0i8.p0i8.i64(i8* align 4 %150, i8* align 4 %151, i64 4, i1 false)
  %152 = load %class.Clause*, %class.Clause** %11, align 8
  %153 = load i32, i32* %20, align 4
  %154 = call dereferenceable(4) %class.Lit* @_ZN6ClauseixEi(%class.Clause* %152, i32 %153)
  %155 = bitcast %class.Lit* %154 to i8*
  %156 = bitcast %class.Lit* %12 to i8*
  call void @llvm.memcpy.p0i8.p0i8.i64(i8* align 4 %155, i8* align 4 %156, i64 4, i1 false)
  %157 = getelementptr inbounds %class.Solver, %class.Solver* %31, i32 0, i32 27
  %158 = load %class.Clause*, %class.Clause** %11, align 8
  %159 = call dereferenceable(4) %class.Lit* @_ZN6ClauseixEi(%class.Clause* %158, i32 1)
  %160 = bitcast %class.Lit* %25 to i8*
  %161 = bitcast %class.Lit* %159 to i8*
  call void @llvm.memcpy.p0i8.p0i8.i64(i8* align 4 %160, i8* align 4 %161, i64 4, i1 false)
  %162 = getelementptr inbounds %class.Lit, %class.Lit* %25, i32 0, i32 0
  %163 = load i32, i32* %162, align 4
  %164 = call i32 @_Zco3Lit(i32 %163)
  %165 = getelementptr inbounds %class.Lit, %class.Lit* %24, i32 0, i32 0
  store i32 %164, i32* %165, align 4
  %166 = getelementptr inbounds %class.Lit, %class.Lit* %24, i32 0, i32 0
  %167 = load i32, i32* %166, align 4
  %168 = call i32 @_Z5toInt3Lit(i32 %167)
  %169 = call dereferenceable(16) %class.vec.1* @_ZN3vecIS_IP6ClauseEEixEi(%class.vec.3* %157, i32 %168)
  %170 = load %class.Clause*, %class.Clause** %11, align 8
  store %class.Clause* %170, %class.Clause** %26, align 8
  call void @_ZN3vecIP6ClauseE4pushERKS1_(%class.vec.1* %169, %class.Clause** dereferenceable(8) %26)
  br label %213

171:                                              ; preds = %130
  br label %172

172:                                              ; preds = %171
  %173 = load i32, i32* %20, align 4
  %174 = add nsw i32 %173, 1
  store i32 %174, i32* %20, align 4
  br label %125

175:                                              ; preds = %125
  %176 = load %class.Clause*, %class.Clause** %11, align 8
  %177 = load %class.Clause**, %class.Clause*** %9, align 8
  %178 = getelementptr inbounds %class.Clause*, %class.Clause** %177, i32 1
  store %class.Clause** %178, %class.Clause*** %9, align 8
  store %class.Clause* %176, %class.Clause** %177, align 8
  %179 = bitcast %class.Lit* %28 to i8*
  %180 = bitcast %class.Lit* %16 to i8*
  call void @llvm.memcpy.p0i8.p0i8.i64(i8* align 4 %179, i8* align 4 %180, i64 4, i1 false)
  %181 = getelementptr inbounds %class.Lit, %class.Lit* %28, i32 0, i32 0
  %182 = load i32, i32* %181, align 4
  %183 = call i8 @_ZNK6Solver5valueE3Lit(%class.Solver* %31, i32 %182)
  %184 = getelementptr inbounds %class.lbool, %class.lbool* %27, i32 0, i32 0
  store i8 %183, i8* %184, align 1
  %185 = bitcast %class.lbool* %29 to i8*
  call void @llvm.memcpy.p0i8.p0i8.i64(i8* align 1 %185, i8* align 1 getelementptr inbounds (%class.lbool, %class.lbool* @_ZL7l_False.11, i32 0, i32 0), i64 1, i1 false)
  %186 = getelementptr inbounds %class.lbool, %class.lbool* %29, i32 0, i32 0
  %187 = load i8, i8* %186, align 1
  %188 = call zeroext i1 @_ZNK5lbooleqES_(%class.lbool* %27, i8 %187)
  br i1 %188, label %189, label %205

189:                                              ; preds = %175
  %190 = load %class.Clause*, %class.Clause** %11, align 8
  store %class.Clause* %190, %class.Clause** %3, align 8
  %191 = getelementptr inbounds %class.Solver, %class.Solver* %31, i32 0, i32 31
  %192 = call i32 @_ZNK3vecI3LitE4sizeEv(%class.vec.0* %191)
  %193 = getelementptr inbounds %class.Solver, %class.Solver* %31, i32 0, i32 35
  store i32 %192, i32* %193, align 8
  br label %194

194:                                              ; preds = %198, %189
  %195 = load %class.Clause**, %class.Clause*** %8, align 8
  %196 = load %class.Clause**, %class.Clause*** %10, align 8
  %197 = icmp ult %class.Clause** %195, %196
  br i1 %197, label %198, label %204

198:                                              ; preds = %194
  %199 = load %class.Clause**, %class.Clause*** %8, align 8
  %200 = getelementptr inbounds %class.Clause*, %class.Clause** %199, i32 1
  store %class.Clause** %200, %class.Clause*** %8, align 8
  %201 = load %class.Clause*, %class.Clause** %199, align 8
  %202 = load %class.Clause**, %class.Clause*** %9, align 8
  %203 = getelementptr inbounds %class.Clause*, %class.Clause** %202, i32 1
  store %class.Clause** %203, %class.Clause*** %9, align 8
  store %class.Clause* %201, %class.Clause** %202, align 8
  br label %194

204:                                              ; preds = %194
  br label %211

205:                                              ; preds = %175
  %206 = bitcast %class.Lit* %30 to i8*
  %207 = bitcast %class.Lit* %16 to i8*
  call void @llvm.memcpy.p0i8.p0i8.i64(i8* align 4 %206, i8* align 4 %207, i64 4, i1 false)
  %208 = load %class.Clause*, %class.Clause** %11, align 8
  %209 = getelementptr inbounds %class.Lit, %class.Lit* %30, i32 0, i32 0
  %210 = load i32, i32* %209, align 4
  call void @_ZN6Solver16uncheckedEnqueueE3LitP6Clause(%class.Solver* %31, i32 %210, %class.Clause* %208)
  br label %211

211:                                              ; preds = %205, %204
  br label %212

212:                                              ; preds = %211, %120
  br label %213

213:                                              ; preds = %212, %144
  br label %62

214:                                              ; preds = %62
  %215 = load %class.vec.1*, %class.vec.1** %6, align 8
  %216 = load %class.Clause**, %class.Clause*** %8, align 8
  %217 = load %class.Clause**, %class.Clause*** %9, align 8
  %218 = ptrtoint %class.Clause** %216 to i64
  %219 = ptrtoint %class.Clause** %217 to i64
  %220 = sub i64 %218, %219
  %221 = sdiv exact i64 %220, 8
  %222 = trunc i64 %221 to i32
  call void @_ZN3vecIP6ClauseE6shrinkEi(%class.vec.1* %215, i32 %222)
  br label %32

223:                                              ; preds = %32
  %224 = load i32, i32* %4, align 4
  %225 = sext i32 %224 to i64
  %226 = getelementptr inbounds %class.Solver, %class.Solver* %31, i32 0, i32 15
  %227 = load i64, i64* %226, align 8
  %228 = add i64 %227, %225
  store i64 %228, i64* %226, align 8
  %229 = load i32, i32* %4, align 4
  %230 = sext i32 %229 to i64
  %231 = getelementptr inbounds %class.Solver, %class.Solver* %31, i32 0, i32 37
  %232 = load i64, i64* %231, align 8
  %233 = sub nsw i64 %232, %230
  store i64 %233, i64* %231, align 8
  %234 = load %class.Clause*, %class.Clause** %3, align 8
  ret %class.Clause* %234
}

; Function Attrs: noinline uwtable
define linkonce_odr dso_local %class.Clause* @_Z10Clause_newI3vecI3LitEEP6ClauseRKT_b(%class.vec.0* dereferenceable(16) %0, i1 zeroext %1) #0 comdat {
  %3 = alloca %class.vec.0*, align 8
  %4 = alloca i8, align 1
  %5 = alloca i8*, align 8
  store %class.vec.0* %0, %class.vec.0** %3, align 8
  %6 = zext i1 %1 to i8
  store i8 %6, i8* %4, align 1
  %7 = load %class.vec.0*, %class.vec.0** %3, align 8
  %8 = call i32 @_ZNK3vecI3LitE4sizeEv(%class.vec.0* %7)
  %9 = sext i32 %8 to i64
  %10 = mul i64 4, %9
  %11 = add i64 8, %10
  %12 = call noalias i8* @malloc(i64 %11) #12
  store i8* %12, i8** %5, align 8
  %13 = load i8*, i8** %5, align 8
  %14 = bitcast i8* %13 to %class.Clause*
  %15 = load %class.vec.0*, %class.vec.0** %3, align 8
  %16 = load i8, i8* %4, align 1
  %17 = trunc i8 %16 to i1
  call void @_ZN6ClauseC2I3vecI3LitEEERKT_b(%class.Clause* %14, %class.vec.0* dereferenceable(16) %15, i1 zeroext %17)
  ret %class.Clause* %14
}

; Function Attrs: noinline uwtable
define dso_local void @_ZN6Solver12attachClauseER6Clause(%class.Solver* %0, %class.Clause* dereferenceable(8) %1) #0 align 2 {
  %3 = alloca %class.Solver*, align 8
  %4 = alloca %class.Clause*, align 8
  %5 = alloca %class.Lit, align 4
  %6 = alloca %class.Lit, align 4
  %7 = alloca %class.Clause*, align 8
  %8 = alloca %class.Lit, align 4
  %9 = alloca %class.Lit, align 4
  %10 = alloca %class.Clause*, align 8
  store %class.Solver* %0, %class.Solver** %3, align 8
  store %class.Clause* %1, %class.Clause** %4, align 8
  %11 = load %class.Solver*, %class.Solver** %3, align 8
  %12 = load %class.Clause*, %class.Clause** %4, align 8
  %13 = call i32 @_ZNK6Clause4sizeEv(%class.Clause* %12)
  %14 = icmp sgt i32 %13, 1
  br i1 %14, label %15, label %16

15:                                               ; preds = %2
  br label %18

16:                                               ; preds = %2
  call void @__assert_fail(i8* getelementptr inbounds ([13 x i8], [13 x i8]* @.str.7.59, i64 0, i64 0), i8* getelementptr inbounds ([11 x i8], [11 x i8]* @.str.5.57, i64 0, i64 0), i32 127, i8* getelementptr inbounds ([36 x i8], [36 x i8]* @__PRETTY_FUNCTION__._ZN6Solver12attachClauseER6Clause, i64 0, i64 0)) #15
  unreachable

17:                                               ; No predecessors!
  br label %18

18:                                               ; preds = %17, %15
  %19 = getelementptr inbounds %class.Solver, %class.Solver* %11, i32 0, i32 27
  %20 = load %class.Clause*, %class.Clause** %4, align 8
  %21 = call dereferenceable(4) %class.Lit* @_ZN6ClauseixEi(%class.Clause* %20, i32 0)
  %22 = bitcast %class.Lit* %6 to i8*
  %23 = bitcast %class.Lit* %21 to i8*
  call void @llvm.memcpy.p0i8.p0i8.i64(i8* align 4 %22, i8* align 4 %23, i64 4, i1 false)
  %24 = getelementptr inbounds %class.Lit, %class.Lit* %6, i32 0, i32 0
  %25 = load i32, i32* %24, align 4
  %26 = call i32 @_Zco3Lit(i32 %25)
  %27 = getelementptr inbounds %class.Lit, %class.Lit* %5, i32 0, i32 0
  store i32 %26, i32* %27, align 4
  %28 = getelementptr inbounds %class.Lit, %class.Lit* %5, i32 0, i32 0
  %29 = load i32, i32* %28, align 4
  %30 = call i32 @_Z5toInt3Lit(i32 %29)
  %31 = call dereferenceable(16) %class.vec.1* @_ZN3vecIS_IP6ClauseEEixEi(%class.vec.3* %19, i32 %30)
  %32 = load %class.Clause*, %class.Clause** %4, align 8
  store %class.Clause* %32, %class.Clause** %7, align 8
  call void @_ZN3vecIP6ClauseE4pushERKS1_(%class.vec.1* %31, %class.Clause** dereferenceable(8) %7)
  %33 = getelementptr inbounds %class.Solver, %class.Solver* %11, i32 0, i32 27
  %34 = load %class.Clause*, %class.Clause** %4, align 8
  %35 = call dereferenceable(4) %class.Lit* @_ZN6ClauseixEi(%class.Clause* %34, i32 1)
  %36 = bitcast %class.Lit* %9 to i8*
  %37 = bitcast %class.Lit* %35 to i8*
